libonemkl.so.0:_Z20_txnal_cow_string_D1Pv
libonemkl.so.0:_Z23_txnal_cow_string_c_strPKv
libonemkl.so.0:_Z23_txnal_sso_string_c_strPKv
libonemkl.so.0:_Z26_txnal_logic_error_get_msgPv
libonemkl.so.0:_Z27_txnal_cow_string_D1_commitPv
libonemkl.so.0:_Z28_txnal_runtime_error_get_msgPv
libonemkl.so.0:_Z35_txnal_cow_string_C1_for_exceptionsPvPKcS_
libonemkl.so.0:_ZGTtNKSt11logic_error4whatEv
libonemkl.so.0:_ZGTtNKSt13bad_exception4whatEv
libonemkl.so.0:_ZGTtNKSt13bad_exceptionD1Ev
libonemkl.so.0:_ZGTtNKSt13runtime_error4whatEv
libonemkl.so.0:_ZGTtNKSt9exception4whatEv
libonemkl.so.0:_ZGTtNKSt9exceptionD1Ev
libonemkl.so.0:_ZGTtNSt11logic_errorC1EPKc
libonemkl.so.0:_ZGTtNSt11logic_errorC1ERKNSt7__cxx1112basic_stringIcSt11char_traitsIcESaIcEEE
libonemkl.so.0:_ZGTtNSt11logic_errorC2EPKc
libonemkl.so.0:_ZGTtNSt11logic_errorC2ERKNSt7__cxx1112basic_stringIcSt11char_traitsIcESaIcEEE
libonemkl.so.0:_ZGTtNSt11logic_errorD0Ev
libonemkl.so.0:_ZGTtNSt11logic_errorD1Ev
libonemkl.so.0:_ZGTtNSt11logic_errorD2Ev
libonemkl.so.0:_ZGTtNSt11range_errorC1EPKc
libonemkl.so.0:_ZGTtNSt11range_errorC1ERKNSt7__cxx1112basic_stringIcSt11char_traitsIcESaIcEEE
libonemkl.so.0:_ZGTtNSt11range_errorC2EPKc
libonemkl.so.0:_ZGTtNSt11range_errorC2ERKNSt7__cxx1112basic_stringIcSt11char_traitsIcESaIcEEE
libonemkl.so.0:_ZGTtNSt11range_errorD0Ev
libonemkl.so.0:_ZGTtNSt11range_errorD1Ev
libonemkl.so.0:_ZGTtNSt11range_errorD2Ev
libonemkl.so.0:_ZGTtNSt12domain_errorC1EPKc
libonemkl.so.0:_ZGTtNSt12domain_errorC1ERKNSt7__cxx1112basic_stringIcSt11char_traitsIcESaIcEEE
libonemkl.so.0:_ZGTtNSt12domain_errorC2EPKc
libonemkl.so.0:_ZGTtNSt12domain_errorC2ERKNSt7__cxx1112basic_stringIcSt11char_traitsIcESaIcEEE
libonemkl.so.0:_ZGTtNSt12domain_errorD0Ev
libonemkl.so.0:_ZGTtNSt12domain_errorD1Ev
libonemkl.so.0:_ZGTtNSt12domain_errorD2Ev
libonemkl.so.0:_ZGTtNSt12length_errorC1EPKc
libonemkl.so.0:_ZGTtNSt12length_errorC1ERKNSt7__cxx1112basic_stringIcSt11char_traitsIcESaIcEEE
libonemkl.so.0:_ZGTtNSt12length_errorC2EPKc
libonemkl.so.0:_ZGTtNSt12length_errorC2ERKNSt7__cxx1112basic_stringIcSt11char_traitsIcESaIcEEE
libonemkl.so.0:_ZGTtNSt12length_errorD0Ev
libonemkl.so.0:_ZGTtNSt12length_errorD1Ev
libonemkl.so.0:_ZGTtNSt12length_errorD2Ev
libonemkl.so.0:_ZGTtNSt12out_of_rangeC1EPKc
libonemkl.so.0:_ZGTtNSt12out_of_rangeC1ERKNSt7__cxx1112basic_stringIcSt11char_traitsIcESaIcEEE
libonemkl.so.0:_ZGTtNSt12out_of_rangeC2EPKc
libonemkl.so.0:_ZGTtNSt12out_of_rangeC2ERKNSt7__cxx1112basic_stringIcSt11char_traitsIcESaIcEEE
libonemkl.so.0:_ZGTtNSt12out_of_rangeD0Ev
libonemkl.so.0:_ZGTtNSt12out_of_rangeD1Ev
libonemkl.so.0:_ZGTtNSt12out_of_rangeD2Ev
libonemkl.so.0:_ZGTtNSt13runtime_errorC1EPKc
libonemkl.so.0:_ZGTtNSt13runtime_errorC1ERKNSt7__cxx1112basic_stringIcSt11char_traitsIcESaIcEEE
libonemkl.so.0:_ZGTtNSt13runtime_errorC2EPKc
libonemkl.so.0:_ZGTtNSt13runtime_errorC2ERKNSt7__cxx1112basic_stringIcSt11char_traitsIcESaIcEEE
libonemkl.so.0:_ZGTtNSt13runtime_errorD0Ev
libonemkl.so.0:_ZGTtNSt13runtime_errorD1Ev
libonemkl.so.0:_ZGTtNSt13runtime_errorD2Ev
libonemkl.so.0:_ZGTtNSt14overflow_errorC1EPKc
libonemkl.so.0:_ZGTtNSt14overflow_errorC1ERKNSt7__cxx1112basic_stringIcSt11char_traitsIcESaIcEEE
libonemkl.so.0:_ZGTtNSt14overflow_errorC2EPKc
libonemkl.so.0:_ZGTtNSt14overflow_errorC2ERKNSt7__cxx1112basic_stringIcSt11char_traitsIcESaIcEEE
libonemkl.so.0:_ZGTtNSt14overflow_errorD0Ev
libonemkl.so.0:_ZGTtNSt14overflow_errorD1Ev
libonemkl.so.0:_ZGTtNSt14overflow_errorD2Ev
libonemkl.so.0:_ZGTtNSt15underflow_errorC1EPKc
libonemkl.so.0:_ZGTtNSt15underflow_errorC1ERKNSt7__cxx1112basic_stringIcSt11char_traitsIcESaIcEEE
libonemkl.so.0:_ZGTtNSt15underflow_errorC2EPKc
libonemkl.so.0:_ZGTtNSt15underflow_errorC2ERKNSt7__cxx1112basic_stringIcSt11char_traitsIcESaIcEEE
libonemkl.so.0:_ZGTtNSt15underflow_errorD0Ev
libonemkl.so.0:_ZGTtNSt15underflow_errorD1Ev
libonemkl.so.0:_ZGTtNSt15underflow_errorD2Ev
libonemkl.so.0:_ZGTtNSt16invalid_argumentC1EPKc
libonemkl.so.0:_ZGTtNSt16invalid_argumentC1ERKNSt7__cxx1112basic_stringIcSt11char_traitsIcESaIcEEE
libonemkl.so.0:_ZGTtNSt16invalid_argumentC2EPKc
libonemkl.so.0:_ZGTtNSt16invalid_argumentC2ERKNSt7__cxx1112basic_stringIcSt11char_traitsIcESaIcEEE
libonemkl.so.0:_ZGTtNSt16invalid_argumentD0Ev
libonemkl.so.0:_ZGTtNSt16invalid_argumentD1Ev
libonemkl.so.0:_ZGTtNSt16invalid_argumentD2Ev
libonemkl.so.0:_ZN10__cxxabiv111__terminateEPFvvE
libonemkl.so.0:_ZN10__cxxabiv112__unexpectedEPFvvE
libonemkl.so.0:_ZN10__cxxabiv115__forced_unwindD0Ev
libonemkl.so.0:_ZN10__cxxabiv115__forced_unwindD1Ev
libonemkl.so.0:_ZN10__cxxabiv115__forced_unwindD2Ev
libonemkl.so.0:_ZN10__cxxabiv117__class_type_infoD0Ev
libonemkl.so.0:_ZN10__cxxabiv117__class_type_infoD1Ev
libonemkl.so.0:_ZN10__cxxabiv117__class_type_infoD2Ev
libonemkl.so.0:_ZN10__cxxabiv119__foreign_exceptionD0Ev
libonemkl.so.0:_ZN10__cxxabiv119__foreign_exceptionD1Ev
libonemkl.so.0:_ZN10__cxxabiv119__foreign_exceptionD2Ev
libonemkl.so.0:_ZN10__cxxabiv120__si_class_type_infoD0Ev
libonemkl.so.0:_ZN10__cxxabiv120__si_class_type_infoD1Ev
libonemkl.so.0:_ZN10__cxxabiv120__si_class_type_infoD2Ev
libonemkl.so.0:_ZN10__cxxabiv121__vmi_class_type_infoD0Ev
libonemkl.so.0:_ZN10__cxxabiv121__vmi_class_type_infoD1Ev
libonemkl.so.0:_ZN10__cxxabiv121__vmi_class_type_infoD2Ev
libonemkl.so.0:_ZN6oneapi3mkl3rng6detail15create_mrg32k3aENS0_6deviceEN2cl4sycl5queueESt16initializer_listIjE
libonemkl.so.0:_ZN6oneapi3mkl3rng6detail15create_mrg32k3aENS0_6deviceEN2cl4sycl5queueEj
libonemkl.so.0:_ZN6oneapi3mkl3rng6detail20create_philox4x32x10ENS0_6deviceEN2cl4sycl5queueESt16initializer_listImE
libonemkl.so.0:_ZN6oneapi3mkl3rng6detail20create_philox4x32x10ENS0_6deviceEN2cl4sycl5queueEm
libonemkl.so.0:_ZN6oneapi3mkl6lapack6detail11geqrf_batchENS0_6deviceERN2cl4sycl5queueEPlS8_PPSt7complexIdES8_SC_lS8_SB_lRKSt6vectorINS5_5eventESaISE_EE
libonemkl.so.0:_ZN6oneapi3mkl6lapack6detail11geqrf_batchENS0_6deviceERN2cl4sycl5queueEPlS8_PPSt7complexIfES8_SC_lS8_SB_lRKSt6vectorINS5_5eventESaISE_EE
libonemkl.so.0:_ZN6oneapi3mkl6lapack6detail11geqrf_batchENS0_6deviceERN2cl4sycl5queueEPlS8_PPdS8_SA_lS8_S9_lRKSt6vectorINS5_5eventESaISC_EE
libonemkl.so.0:_ZN6oneapi3mkl6lapack6detail11geqrf_batchENS0_6deviceERN2cl4sycl5queueEPlS8_PPfS8_SA_lS8_S9_lRKSt6vectorINS5_5eventESaISC_EE
libonemkl.so.0:_ZN6oneapi3mkl6lapack6detail11geqrf_batchENS0_6deviceERN2cl4sycl5queueEllPSt7complexIdEllSA_llSA_lRKSt6vectorINS5_5eventESaISC_EE
libonemkl.so.0:_ZN6oneapi3mkl6lapack6detail11geqrf_batchENS0_6deviceERN2cl4sycl5queueEllPSt7complexIfEllSA_llSA_lRKSt6vectorINS5_5eventESaISC_EE
libonemkl.so.0:_ZN6oneapi3mkl6lapack6detail11geqrf_batchENS0_6deviceERN2cl4sycl5queueEllPdllS8_llS8_lRKSt6vectorINS5_5eventESaISA_EE
libonemkl.so.0:_ZN6oneapi3mkl6lapack6detail11geqrf_batchENS0_6deviceERN2cl4sycl5queueEllPfllS8_llS8_lRKSt6vectorINS5_5eventESaISA_EE
libonemkl.so.0:_ZN6oneapi3mkl6lapack6detail11geqrf_batchENS0_6deviceERN2cl4sycl5queueEllRNS5_6bufferISt7complexIdELi1ENS5_6detail17aligned_allocatorIcEEvEEllSF_llSF_l
libonemkl.so.0:_ZN6oneapi3mkl6lapack6detail11geqrf_batchENS0_6deviceERN2cl4sycl5queueEllRNS5_6bufferISt7complexIfELi1ENS5_6detail17aligned_allocatorIcEEvEEllSF_llSF_l
libonemkl.so.0:_ZN6oneapi3mkl6lapack6detail11geqrf_batchENS0_6deviceERN2cl4sycl5queueEllRNS5_6bufferIdLi1ENS5_6detail17aligned_allocatorIcEEvEEllSD_llSD_l
libonemkl.so.0:_ZN6oneapi3mkl6lapack6detail11geqrf_batchENS0_6deviceERN2cl4sycl5queueEllRNS5_6bufferIfLi1ENS5_6detail17aligned_allocatorIcEEvEEllSD_llSD_l
libonemkl.so.0:_ZN6oneapi3mkl6lapack6detail11getrf_batchENS0_6deviceERN2cl4sycl5queueEPlS8_PPSt7complexIdES8_PS8_lS8_SB_lRKSt6vectorINS5_5eventESaISF_EE
libonemkl.so.0:_ZN6oneapi3mkl6lapack6detail11getrf_batchENS0_6deviceERN2cl4sycl5queueEPlS8_PPSt7complexIfES8_PS8_lS8_SB_lRKSt6vectorINS5_5eventESaISF_EE
libonemkl.so.0:_ZN6oneapi3mkl6lapack6detail11getrf_batchENS0_6deviceERN2cl4sycl5queueEPlS8_PPdS8_PS8_lS8_S9_lRKSt6vectorINS5_5eventESaISD_EE
libonemkl.so.0:_ZN6oneapi3mkl6lapack6detail11getrf_batchENS0_6deviceERN2cl4sycl5queueEPlS8_PPfS8_PS8_lS8_S9_lRKSt6vectorINS5_5eventESaISD_EE
libonemkl.so.0:_ZN6oneapi3mkl6lapack6detail11getrf_batchENS0_6deviceERN2cl4sycl5queueEllPSt7complexIdEllPlllSA_lRKSt6vectorINS5_5eventESaISD_EE
libonemkl.so.0:_ZN6oneapi3mkl6lapack6detail11getrf_batchENS0_6deviceERN2cl4sycl5queueEllPSt7complexIfEllPlllSA_lRKSt6vectorINS5_5eventESaISD_EE
libonemkl.so.0:_ZN6oneapi3mkl6lapack6detail11getrf_batchENS0_6deviceERN2cl4sycl5queueEllPdllPlllS8_lRKSt6vectorINS5_5eventESaISB_EE
libonemkl.so.0:_ZN6oneapi3mkl6lapack6detail11getrf_batchENS0_6deviceERN2cl4sycl5queueEllPfllPlllS8_lRKSt6vectorINS5_5eventESaISB_EE
libonemkl.so.0:_ZN6oneapi3mkl6lapack6detail11getrf_batchENS0_6deviceERN2cl4sycl5queueEllRNS5_6bufferISt7complexIdELi1ENS5_6detail17aligned_allocatorIcEEvEEllRNS8_IlLi1ESD_vEEllSF_l
libonemkl.so.0:_ZN6oneapi3mkl6lapack6detail11getrf_batchENS0_6deviceERN2cl4sycl5queueEllRNS5_6bufferISt7complexIfELi1ENS5_6detail17aligned_allocatorIcEEvEEllRNS8_IlLi1ESD_vEEllSF_l
libonemkl.so.0:_ZN6oneapi3mkl6lapack6detail11getrf_batchENS0_6deviceERN2cl4sycl5queueEllRNS5_6bufferIdLi1ENS5_6detail17aligned_allocatorIcEEvEEllRNS8_IlLi1ESB_vEEllSD_l
libonemkl.so.0:_ZN6oneapi3mkl6lapack6detail11getrf_batchENS0_6deviceERN2cl4sycl5queueEllRNS5_6bufferIfLi1ENS5_6detail17aligned_allocatorIcEEvEEllRNS8_IlLi1ESB_vEEllSD_l
libonemkl.so.0:_ZN6oneapi3mkl6lapack6detail11getri_batchENS0_6deviceERN2cl4sycl5queueEPlPPSt7complexIdES8_PS8_lS8_SB_lRKSt6vectorINS5_5eventESaISF_EE
libonemkl.so.0:_ZN6oneapi3mkl6lapack6detail11getri_batchENS0_6deviceERN2cl4sycl5queueEPlPPSt7complexIfES8_PS8_lS8_SB_lRKSt6vectorINS5_5eventESaISF_EE
libonemkl.so.0:_ZN6oneapi3mkl6lapack6detail11getri_batchENS0_6deviceERN2cl4sycl5queueEPlPPdS8_PS8_lS8_S9_lRKSt6vectorINS5_5eventESaISD_EE
libonemkl.so.0:_ZN6oneapi3mkl6lapack6detail11getri_batchENS0_6deviceERN2cl4sycl5queueEPlPPfS8_PS8_lS8_S9_lRKSt6vectorINS5_5eventESaISD_EE
libonemkl.so.0:_ZN6oneapi3mkl6lapack6detail11getri_batchENS0_6deviceERN2cl4sycl5queueElPSt7complexIdEllPlllSA_lRKSt6vectorINS5_5eventESaISD_EE
libonemkl.so.0:_ZN6oneapi3mkl6lapack6detail11getri_batchENS0_6deviceERN2cl4sycl5queueElPSt7complexIfEllPlllSA_lRKSt6vectorINS5_5eventESaISD_EE
libonemkl.so.0:_ZN6oneapi3mkl6lapack6detail11getri_batchENS0_6deviceERN2cl4sycl5queueElPdllPlllS8_lRKSt6vectorINS5_5eventESaISB_EE
libonemkl.so.0:_ZN6oneapi3mkl6lapack6detail11getri_batchENS0_6deviceERN2cl4sycl5queueElPfllPlllS8_lRKSt6vectorINS5_5eventESaISB_EE
libonemkl.so.0:_ZN6oneapi3mkl6lapack6detail11getri_batchENS0_6deviceERN2cl4sycl5queueElRNS5_6bufferISt7complexIdELi1ENS5_6detail17aligned_allocatorIcEEvEEllRNS8_IlLi1ESD_vEEllSF_l
libonemkl.so.0:_ZN6oneapi3mkl6lapack6detail11getri_batchENS0_6deviceERN2cl4sycl5queueElRNS5_6bufferISt7complexIfELi1ENS5_6detail17aligned_allocatorIcEEvEEllRNS8_IlLi1ESD_vEEllSF_l
libonemkl.so.0:_ZN6oneapi3mkl6lapack6detail11getri_batchENS0_6deviceERN2cl4sycl5queueElRNS5_6bufferIdLi1ENS5_6detail17aligned_allocatorIcEEvEEllRNS8_IlLi1ESB_vEEllSD_l
libonemkl.so.0:_ZN6oneapi3mkl6lapack6detail11getri_batchENS0_6deviceERN2cl4sycl5queueElRNS5_6bufferIfLi1ENS5_6detail17aligned_allocatorIcEEvEEllRNS8_IlLi1ESB_vEEllSD_l
libonemkl.so.0:_ZN6oneapi3mkl6lapack6detail11getrs_batchENS0_6deviceERN2cl4sycl5queueENS0_9transposeEllPSt7complexIdEllPllSB_lllSB_lRKSt6vectorINS5_5eventESaISE_EE
libonemkl.so.0:_ZN6oneapi3mkl6lapack6detail11getrs_batchENS0_6deviceERN2cl4sycl5queueENS0_9transposeEllPSt7complexIfEllPllSB_lllSB_lRKSt6vectorINS5_5eventESaISE_EE
libonemkl.so.0:_ZN6oneapi3mkl6lapack6detail11getrs_batchENS0_6deviceERN2cl4sycl5queueENS0_9transposeEllPdllPllS9_lllS9_lRKSt6vectorINS5_5eventESaISC_EE
libonemkl.so.0:_ZN6oneapi3mkl6lapack6detail11getrs_batchENS0_6deviceERN2cl4sycl5queueENS0_9transposeEllPfllPllS9_lllS9_lRKSt6vectorINS5_5eventESaISC_EE
libonemkl.so.0:_ZN6oneapi3mkl6lapack6detail11getrs_batchENS0_6deviceERN2cl4sycl5queueENS0_9transposeEllRNS5_6bufferISt7complexIdELi1ENS5_6detail17aligned_allocatorIcEEvEEllRNS9_IlLi1ESE_vEElSG_lllSG_l
libonemkl.so.0:_ZN6oneapi3mkl6lapack6detail11getrs_batchENS0_6deviceERN2cl4sycl5queueENS0_9transposeEllRNS5_6bufferISt7complexIfELi1ENS5_6detail17aligned_allocatorIcEEvEEllRNS9_IlLi1ESE_vEElSG_lllSG_l
libonemkl.so.0:_ZN6oneapi3mkl6lapack6detail11getrs_batchENS0_6deviceERN2cl4sycl5queueENS0_9transposeEllRNS5_6bufferIdLi1ENS5_6detail17aligned_allocatorIcEEvEEllRNS9_IlLi1ESC_vEElSE_lllSE_l
libonemkl.so.0:_ZN6oneapi3mkl6lapack6detail11getrs_batchENS0_6deviceERN2cl4sycl5queueENS0_9transposeEllRNS5_6bufferIfLi1ENS5_6detail17aligned_allocatorIcEEvEEllRNS9_IlLi1ESC_vEElSE_lllSE_l
libonemkl.so.0:_ZN6oneapi3mkl6lapack6detail11getrs_batchENS0_6deviceERN2cl4sycl5queueEPNS0_9transposeEPlSA_PPSt7complexIdESA_PSA_SE_SA_lSA_SD_lRKSt6vectorINS5_5eventESaISH_EE
libonemkl.so.0:_ZN6oneapi3mkl6lapack6detail11getrs_batchENS0_6deviceERN2cl4sycl5queueEPNS0_9transposeEPlSA_PPSt7complexIfESA_PSA_SE_SA_lSA_SD_lRKSt6vectorINS5_5eventESaISH_EE
libonemkl.so.0:_ZN6oneapi3mkl6lapack6detail11getrs_batchENS0_6deviceERN2cl4sycl5queueEPNS0_9transposeEPlSA_PPdSA_PSA_SC_SA_lSA_SB_lRKSt6vectorINS5_5eventESaISF_EE
libonemkl.so.0:_ZN6oneapi3mkl6lapack6detail11getrs_batchENS0_6deviceERN2cl4sycl5queueEPNS0_9transposeEPlSA_PPfSA_PSA_SC_SA_lSA_SB_lRKSt6vectorINS5_5eventESaISF_EE
libonemkl.so.0:_ZN6oneapi3mkl6lapack6detail11orgqr_batchENS0_6deviceERN2cl4sycl5queueEPlS8_S8_PPdS8_SA_lS8_S9_lRKSt6vectorINS5_5eventESaISC_EE
libonemkl.so.0:_ZN6oneapi3mkl6lapack6detail11orgqr_batchENS0_6deviceERN2cl4sycl5queueEPlS8_S8_PPfS8_SA_lS8_S9_lRKSt6vectorINS5_5eventESaISC_EE
libonemkl.so.0:_ZN6oneapi3mkl6lapack6detail11orgqr_batchENS0_6deviceERN2cl4sycl5queueElllPdllS8_llS8_lRKSt6vectorINS5_5eventESaISA_EE
libonemkl.so.0:_ZN6oneapi3mkl6lapack6detail11orgqr_batchENS0_6deviceERN2cl4sycl5queueElllPfllS8_llS8_lRKSt6vectorINS5_5eventESaISA_EE
libonemkl.so.0:_ZN6oneapi3mkl6lapack6detail11orgqr_batchENS0_6deviceERN2cl4sycl5queueElllRNS5_6bufferIdLi1ENS5_6detail17aligned_allocatorIcEEvEEllSD_llSD_l
libonemkl.so.0:_ZN6oneapi3mkl6lapack6detail11orgqr_batchENS0_6deviceERN2cl4sycl5queueElllRNS5_6bufferIfLi1ENS5_6detail17aligned_allocatorIcEEvEEllSD_llSD_l
libonemkl.so.0:_ZN6oneapi3mkl6lapack6detail11potrf_batchENS0_6deviceERN2cl4sycl5queueENS0_4uploElPSt7complexIdElllSB_lRKSt6vectorINS5_5eventESaISD_EE
libonemkl.so.0:_ZN6oneapi3mkl6lapack6detail11potrf_batchENS0_6deviceERN2cl4sycl5queueENS0_4uploElPSt7complexIfElllSB_lRKSt6vectorINS5_5eventESaISD_EE
libonemkl.so.0:_ZN6oneapi3mkl6lapack6detail11potrf_batchENS0_6deviceERN2cl4sycl5queueENS0_4uploElPdlllS9_lRKSt6vectorINS5_5eventESaISB_EE
libonemkl.so.0:_ZN6oneapi3mkl6lapack6detail11potrf_batchENS0_6deviceERN2cl4sycl5queueENS0_4uploElPflllS9_lRKSt6vectorINS5_5eventESaISB_EE
libonemkl.so.0:_ZN6oneapi3mkl6lapack6detail11potrf_batchENS0_6deviceERN2cl4sycl5queueENS0_4uploElRNS5_6bufferISt7complexIdELi1ENS5_6detail17aligned_allocatorIcEEvEElllSG_l
libonemkl.so.0:_ZN6oneapi3mkl6lapack6detail11potrf_batchENS0_6deviceERN2cl4sycl5queueENS0_4uploElRNS5_6bufferISt7complexIfELi1ENS5_6detail17aligned_allocatorIcEEvEElllSG_l
libonemkl.so.0:_ZN6oneapi3mkl6lapack6detail11potrf_batchENS0_6deviceERN2cl4sycl5queueENS0_4uploElRNS5_6bufferIdLi1ENS5_6detail17aligned_allocatorIcEEvEElllSE_l
libonemkl.so.0:_ZN6oneapi3mkl6lapack6detail11potrf_batchENS0_6deviceERN2cl4sycl5queueENS0_4uploElRNS5_6bufferIfLi1ENS5_6detail17aligned_allocatorIcEEvEElllSE_l
libonemkl.so.0:_ZN6oneapi3mkl6lapack6detail11potrf_batchENS0_6deviceERN2cl4sycl5queueEPNS0_4uploEPlPPSt7complexIdESA_lSA_SD_lRKSt6vectorINS5_5eventESaISG_EE
libonemkl.so.0:_ZN6oneapi3mkl6lapack6detail11potrf_batchENS0_6deviceERN2cl4sycl5queueEPNS0_4uploEPlPPSt7complexIfESA_lSA_SD_lRKSt6vectorINS5_5eventESaISG_EE
libonemkl.so.0:_ZN6oneapi3mkl6lapack6detail11potrf_batchENS0_6deviceERN2cl4sycl5queueEPNS0_4uploEPlPPdSA_lSA_SB_lRKSt6vectorINS5_5eventESaISE_EE
libonemkl.so.0:_ZN6oneapi3mkl6lapack6detail11potrf_batchENS0_6deviceERN2cl4sycl5queueEPNS0_4uploEPlPPfSA_lSA_SB_lRKSt6vectorINS5_5eventESaISE_EE
libonemkl.so.0:_ZN6oneapi3mkl6lapack6detail11potrs_batchENS0_6deviceERN2cl4sycl5queueENS0_4uploEllPSt7complexIdEllSB_lllSB_lRKSt6vectorINS5_5eventESaISD_EE
libonemkl.so.0:_ZN6oneapi3mkl6lapack6detail11potrs_batchENS0_6deviceERN2cl4sycl5queueENS0_4uploEllPSt7complexIfEllSB_lllSB_lRKSt6vectorINS5_5eventESaISD_EE
libonemkl.so.0:_ZN6oneapi3mkl6lapack6detail11potrs_batchENS0_6deviceERN2cl4sycl5queueENS0_4uploEllPdllS9_lllS9_lRKSt6vectorINS5_5eventESaISB_EE
libonemkl.so.0:_ZN6oneapi3mkl6lapack6detail11potrs_batchENS0_6deviceERN2cl4sycl5queueENS0_4uploEllPfllS9_lllS9_lRKSt6vectorINS5_5eventESaISB_EE
libonemkl.so.0:_ZN6oneapi3mkl6lapack6detail11potrs_batchENS0_6deviceERN2cl4sycl5queueENS0_4uploEllRNS5_6bufferISt7complexIdELi1ENS5_6detail17aligned_allocatorIcEEvEEllSG_lllSG_l
libonemkl.so.0:_ZN6oneapi3mkl6lapack6detail11potrs_batchENS0_6deviceERN2cl4sycl5queueENS0_4uploEllRNS5_6bufferISt7complexIfELi1ENS5_6detail17aligned_allocatorIcEEvEEllSG_lllSG_l
libonemkl.so.0:_ZN6oneapi3mkl6lapack6detail11potrs_batchENS0_6deviceERN2cl4sycl5queueENS0_4uploEllRNS5_6bufferIdLi1ENS5_6detail17aligned_allocatorIcEEvEEllSE_lllSE_l
libonemkl.so.0:_ZN6oneapi3mkl6lapack6detail11potrs_batchENS0_6deviceERN2cl4sycl5queueENS0_4uploEllRNS5_6bufferIfLi1ENS5_6detail17aligned_allocatorIcEEvEEllSE_lllSE_l
libonemkl.so.0:_ZN6oneapi3mkl6lapack6detail11potrs_batchENS0_6deviceERN2cl4sycl5queueEPNS0_4uploEPlSA_PPSt7complexIdESA_SE_SA_lSA_SD_lRKSt6vectorINS5_5eventESaISG_EE
libonemkl.so.0:_ZN6oneapi3mkl6lapack6detail11potrs_batchENS0_6deviceERN2cl4sycl5queueEPNS0_4uploEPlSA_PPSt7complexIfESA_SE_SA_lSA_SD_lRKSt6vectorINS5_5eventESaISG_EE
libonemkl.so.0:_ZN6oneapi3mkl6lapack6detail11potrs_batchENS0_6deviceERN2cl4sycl5queueEPNS0_4uploEPlSA_PPdSA_SC_SA_lSA_SB_lRKSt6vectorINS5_5eventESaISE_EE
libonemkl.so.0:_ZN6oneapi3mkl6lapack6detail11potrs_batchENS0_6deviceERN2cl4sycl5queueEPNS0_4uploEPlSA_PPfSA_SC_SA_lSA_SB_lRKSt6vectorINS5_5eventESaISE_EE
libonemkl.so.0:_ZN6oneapi3mkl6lapack6detail11ungqr_batchENS0_6deviceERN2cl4sycl5queueEPlS8_S8_PPSt7complexIdES8_SC_lS8_SB_lRKSt6vectorINS5_5eventESaISE_EE
libonemkl.so.0:_ZN6oneapi3mkl6lapack6detail11ungqr_batchENS0_6deviceERN2cl4sycl5queueEPlS8_S8_PPSt7complexIfES8_SC_lS8_SB_lRKSt6vectorINS5_5eventESaISE_EE
libonemkl.so.0:_ZN6oneapi3mkl6lapack6detail11ungqr_batchENS0_6deviceERN2cl4sycl5queueElllPSt7complexIdEllSA_llSA_lRKSt6vectorINS5_5eventESaISC_EE
libonemkl.so.0:_ZN6oneapi3mkl6lapack6detail11ungqr_batchENS0_6deviceERN2cl4sycl5queueElllPSt7complexIfEllSA_llSA_lRKSt6vectorINS5_5eventESaISC_EE
libonemkl.so.0:_ZN6oneapi3mkl6lapack6detail11ungqr_batchENS0_6deviceERN2cl4sycl5queueElllRNS5_6bufferISt7complexIdELi1ENS5_6detail17aligned_allocatorIcEEvEEllSF_llSF_l
libonemkl.so.0:_ZN6oneapi3mkl6lapack6detail11ungqr_batchENS0_6deviceERN2cl4sycl5queueElllRNS5_6bufferISt7complexIfELi1ENS5_6detail17aligned_allocatorIcEEvEEllSF_llSF_l
libonemkl.so.0:_ZN6oneapi3mkl6lapack6detail21gebrd_scratchpad_sizeISt7complexIdELPv0EEElNS0_6deviceERN2cl4sycl5queueElll
libonemkl.so.0:_ZN6oneapi3mkl6lapack6detail21gebrd_scratchpad_sizeISt7complexIfELPv0EEElNS0_6deviceERN2cl4sycl5queueElll
libonemkl.so.0:_ZN6oneapi3mkl6lapack6detail21gebrd_scratchpad_sizeIdLPv0EEElNS0_6deviceERN2cl4sycl5queueElll
libonemkl.so.0:_ZN6oneapi3mkl6lapack6detail21gebrd_scratchpad_sizeIfLPv0EEElNS0_6deviceERN2cl4sycl5queueElll
libonemkl.so.0:_ZN6oneapi3mkl6lapack6detail21geqrf_scratchpad_sizeISt7complexIdELPv0EEElNS0_6deviceERN2cl4sycl5queueElll
libonemkl.so.0:_ZN6oneapi3mkl6lapack6detail21geqrf_scratchpad_sizeISt7complexIfELPv0EEElNS0_6deviceERN2cl4sycl5queueElll
libonemkl.so.0:_ZN6oneapi3mkl6lapack6detail21geqrf_scratchpad_sizeIdLPv0EEElNS0_6deviceERN2cl4sycl5queueElll
libonemkl.so.0:_ZN6oneapi3mkl6lapack6detail21geqrf_scratchpad_sizeIfLPv0EEElNS0_6deviceERN2cl4sycl5queueElll
libonemkl.so.0:_ZN6oneapi3mkl6lapack6detail21gerqf_scratchpad_sizeISt7complexIdELPv0EEElNS0_6deviceERN2cl4sycl5queueElll
libonemkl.so.0:_ZN6oneapi3mkl6lapack6detail21gerqf_scratchpad_sizeISt7complexIfELPv0EEElNS0_6deviceERN2cl4sycl5queueElll
libonemkl.so.0:_ZN6oneapi3mkl6lapack6detail21gerqf_scratchpad_sizeIdLPv0EEElNS0_6deviceERN2cl4sycl5queueElll
libonemkl.so.0:_ZN6oneapi3mkl6lapack6detail21gerqf_scratchpad_sizeIfLPv0EEElNS0_6deviceERN2cl4sycl5queueElll
libonemkl.so.0:_ZN6oneapi3mkl6lapack6detail21gesvd_scratchpad_sizeISt7complexIdELPv0EEElNS0_6deviceERN2cl4sycl5queueENS0_6jobsvdESC_lllll
libonemkl.so.0:_ZN6oneapi3mkl6lapack6detail21gesvd_scratchpad_sizeISt7complexIfELPv0EEElNS0_6deviceERN2cl4sycl5queueENS0_6jobsvdESC_lllll
libonemkl.so.0:_ZN6oneapi3mkl6lapack6detail21gesvd_scratchpad_sizeIdLPv0EEElNS0_6deviceERN2cl4sycl5queueENS0_6jobsvdESA_lllll
libonemkl.so.0:_ZN6oneapi3mkl6lapack6detail21gesvd_scratchpad_sizeIfLPv0EEElNS0_6deviceERN2cl4sycl5queueENS0_6jobsvdESA_lllll
libonemkl.so.0:_ZN6oneapi3mkl6lapack6detail21getrf_scratchpad_sizeISt7complexIdELPv0EEElNS0_6deviceERN2cl4sycl5queueElll
libonemkl.so.0:_ZN6oneapi3mkl6lapack6detail21getrf_scratchpad_sizeISt7complexIfELPv0EEElNS0_6deviceERN2cl4sycl5queueElll
libonemkl.so.0:_ZN6oneapi3mkl6lapack6detail21getrf_scratchpad_sizeIdLPv0EEElNS0_6deviceERN2cl4sycl5queueElll
libonemkl.so.0:_ZN6oneapi3mkl6lapack6detail21getrf_scratchpad_sizeIfLPv0EEElNS0_6deviceERN2cl4sycl5queueElll
libonemkl.so.0:_ZN6oneapi3mkl6lapack6detail21getri_scratchpad_sizeISt7complexIdELPv0EEElNS0_6deviceERN2cl4sycl5queueEll
libonemkl.so.0:_ZN6oneapi3mkl6lapack6detail21getri_scratchpad_sizeISt7complexIfELPv0EEElNS0_6deviceERN2cl4sycl5queueEll
libonemkl.so.0:_ZN6oneapi3mkl6lapack6detail21getri_scratchpad_sizeIdLPv0EEElNS0_6deviceERN2cl4sycl5queueEll
libonemkl.so.0:_ZN6oneapi3mkl6lapack6detail21getri_scratchpad_sizeIfLPv0EEElNS0_6deviceERN2cl4sycl5queueEll
libonemkl.so.0:_ZN6oneapi3mkl6lapack6detail21getrs_scratchpad_sizeISt7complexIdELPv0EEElNS0_6deviceERN2cl4sycl5queueENS0_9transposeEllll
libonemkl.so.0:_ZN6oneapi3mkl6lapack6detail21getrs_scratchpad_sizeISt7complexIfELPv0EEElNS0_6deviceERN2cl4sycl5queueENS0_9transposeEllll
libonemkl.so.0:_ZN6oneapi3mkl6lapack6detail21getrs_scratchpad_sizeIdLPv0EEElNS0_6deviceERN2cl4sycl5queueENS0_9transposeEllll
libonemkl.so.0:_ZN6oneapi3mkl6lapack6detail21getrs_scratchpad_sizeIfLPv0EEElNS0_6deviceERN2cl4sycl5queueENS0_9transposeEllll
libonemkl.so.0:_ZN6oneapi3mkl6lapack6detail21heevd_scratchpad_sizeISt7complexIdELPv0EEElNS0_6deviceERN2cl4sycl5queueENS0_3jobENS0_4uploEll
libonemkl.so.0:_ZN6oneapi3mkl6lapack6detail21heevd_scratchpad_sizeISt7complexIfELPv0EEElNS0_6deviceERN2cl4sycl5queueENS0_3jobENS0_4uploEll
libonemkl.so.0:_ZN6oneapi3mkl6lapack6detail21hegvd_scratchpad_sizeISt7complexIdELPv0EEElNS0_6deviceERN2cl4sycl5queueElNS0_3jobENS0_4uploElll
libonemkl.so.0:_ZN6oneapi3mkl6lapack6detail21hegvd_scratchpad_sizeISt7complexIfELPv0EEElNS0_6deviceERN2cl4sycl5queueElNS0_3jobENS0_4uploElll
libonemkl.so.0:_ZN6oneapi3mkl6lapack6detail21hetrd_scratchpad_sizeISt7complexIdELPv0EEElNS0_6deviceERN2cl4sycl5queueENS0_4uploEll
libonemkl.so.0:_ZN6oneapi3mkl6lapack6detail21hetrd_scratchpad_sizeISt7complexIfELPv0EEElNS0_6deviceERN2cl4sycl5queueENS0_4uploEll
libonemkl.so.0:_ZN6oneapi3mkl6lapack6detail21hetrf_scratchpad_sizeISt7complexIdELPv0EEElNS0_6deviceERN2cl4sycl5queueENS0_4uploEll
libonemkl.so.0:_ZN6oneapi3mkl6lapack6detail21hetrf_scratchpad_sizeISt7complexIfELPv0EEElNS0_6deviceERN2cl4sycl5queueENS0_4uploEll
libonemkl.so.0:_ZN6oneapi3mkl6lapack6detail21orgbr_scratchpad_sizeIdLPv0EEElNS0_6deviceERN2cl4sycl5queueENS0_8generateEllll
libonemkl.so.0:_ZN6oneapi3mkl6lapack6detail21orgbr_scratchpad_sizeIfLPv0EEElNS0_6deviceERN2cl4sycl5queueENS0_8generateEllll
libonemkl.so.0:_ZN6oneapi3mkl6lapack6detail21orgqr_scratchpad_sizeIdLPv0EEElNS0_6deviceERN2cl4sycl5queueEllll
libonemkl.so.0:_ZN6oneapi3mkl6lapack6detail21orgqr_scratchpad_sizeIfLPv0EEElNS0_6deviceERN2cl4sycl5queueEllll
libonemkl.so.0:_ZN6oneapi3mkl6lapack6detail21orgtr_scratchpad_sizeIdLPv0EEElNS0_6deviceERN2cl4sycl5queueENS0_4uploEll
libonemkl.so.0:_ZN6oneapi3mkl6lapack6detail21orgtr_scratchpad_sizeIfLPv0EEElNS0_6deviceERN2cl4sycl5queueENS0_4uploEll
libonemkl.so.0:_ZN6oneapi3mkl6lapack6detail21ormqr_scratchpad_sizeIdLPv0EEElNS0_6deviceERN2cl4sycl5queueENS0_4sideENS0_9transposeElllll
libonemkl.so.0:_ZN6oneapi3mkl6lapack6detail21ormqr_scratchpad_sizeIfLPv0EEElNS0_6deviceERN2cl4sycl5queueENS0_4sideENS0_9transposeElllll
libonemkl.so.0:_ZN6oneapi3mkl6lapack6detail21ormrq_scratchpad_sizeIdLPv0EEElNS0_6deviceERN2cl4sycl5queueENS0_4sideENS0_9transposeElllll
libonemkl.so.0:_ZN6oneapi3mkl6lapack6detail21ormrq_scratchpad_sizeIfLPv0EEElNS0_6deviceERN2cl4sycl5queueENS0_4sideENS0_9transposeElllll
libonemkl.so.0:_ZN6oneapi3mkl6lapack6detail21ormtr_scratchpad_sizeIdLPv0EEElNS0_6deviceERN2cl4sycl5queueENS0_4sideENS0_4uploENS0_9transposeEllll
libonemkl.so.0:_ZN6oneapi3mkl6lapack6detail21ormtr_scratchpad_sizeIfLPv0EEElNS0_6deviceERN2cl4sycl5queueENS0_4sideENS0_4uploENS0_9transposeEllll
libonemkl.so.0:_ZN6oneapi3mkl6lapack6detail21potrf_scratchpad_sizeISt7complexIdELPv0EEElNS0_6deviceERN2cl4sycl5queueENS0_4uploEll
libonemkl.so.0:_ZN6oneapi3mkl6lapack6detail21potrf_scratchpad_sizeISt7complexIfELPv0EEElNS0_6deviceERN2cl4sycl5queueENS0_4uploEll
libonemkl.so.0:_ZN6oneapi3mkl6lapack6detail21potrf_scratchpad_sizeIdLPv0EEElNS0_6deviceERN2cl4sycl5queueENS0_4uploEll
libonemkl.so.0:_ZN6oneapi3mkl6lapack6detail21potrf_scratchpad_sizeIfLPv0EEElNS0_6deviceERN2cl4sycl5queueENS0_4uploEll
libonemkl.so.0:_ZN6oneapi3mkl6lapack6detail21potri_scratchpad_sizeISt7complexIdELPv0EEElNS0_6deviceERN2cl4sycl5queueENS0_4uploEll
libonemkl.so.0:_ZN6oneapi3mkl6lapack6detail21potri_scratchpad_sizeISt7complexIfELPv0EEElNS0_6deviceERN2cl4sycl5queueENS0_4uploEll
libonemkl.so.0:_ZN6oneapi3mkl6lapack6detail21potri_scratchpad_sizeIdLPv0EEElNS0_6deviceERN2cl4sycl5queueENS0_4uploEll
libonemkl.so.0:_ZN6oneapi3mkl6lapack6detail21potri_scratchpad_sizeIfLPv0EEElNS0_6deviceERN2cl4sycl5queueENS0_4uploEll
libonemkl.so.0:_ZN6oneapi3mkl6lapack6detail21potrs_scratchpad_sizeISt7complexIdELPv0EEElNS0_6deviceERN2cl4sycl5queueENS0_4uploEllll
libonemkl.so.0:_ZN6oneapi3mkl6lapack6detail21potrs_scratchpad_sizeISt7complexIfELPv0EEElNS0_6deviceERN2cl4sycl5queueENS0_4uploEllll
libonemkl.so.0:_ZN6oneapi3mkl6lapack6detail21potrs_scratchpad_sizeIdLPv0EEElNS0_6deviceERN2cl4sycl5queueENS0_4uploEllll
libonemkl.so.0:_ZN6oneapi3mkl6lapack6detail21potrs_scratchpad_sizeIfLPv0EEElNS0_6deviceERN2cl4sycl5queueENS0_4uploEllll
libonemkl.so.0:_ZN6oneapi3mkl6lapack6detail21syevd_scratchpad_sizeIdLPv0EEElNS0_6deviceERN2cl4sycl5queueENS0_3jobENS0_4uploEll
libonemkl.so.0:_ZN6oneapi3mkl6lapack6detail21syevd_scratchpad_sizeIfLPv0EEElNS0_6deviceERN2cl4sycl5queueENS0_3jobENS0_4uploEll
libonemkl.so.0:_ZN6oneapi3mkl6lapack6detail21sygvd_scratchpad_sizeIdLPv0EEElNS0_6deviceERN2cl4sycl5queueElNS0_3jobENS0_4uploElll
libonemkl.so.0:_ZN6oneapi3mkl6lapack6detail21sygvd_scratchpad_sizeIfLPv0EEElNS0_6deviceERN2cl4sycl5queueElNS0_3jobENS0_4uploElll
libonemkl.so.0:_ZN6oneapi3mkl6lapack6detail21sytrd_scratchpad_sizeIdLPv0EEElNS0_6deviceERN2cl4sycl5queueENS0_4uploEll
libonemkl.so.0:_ZN6oneapi3mkl6lapack6detail21sytrd_scratchpad_sizeIfLPv0EEElNS0_6deviceERN2cl4sycl5queueENS0_4uploEll
libonemkl.so.0:_ZN6oneapi3mkl6lapack6detail21sytrf_scratchpad_sizeISt7complexIdELPv0EEElNS0_6deviceERN2cl4sycl5queueENS0_4uploEll
libonemkl.so.0:_ZN6oneapi3mkl6lapack6detail21sytrf_scratchpad_sizeISt7complexIfELPv0EEElNS0_6deviceERN2cl4sycl5queueENS0_4uploEll
libonemkl.so.0:_ZN6oneapi3mkl6lapack6detail21sytrf_scratchpad_sizeIdLPv0EEElNS0_6deviceERN2cl4sycl5queueENS0_4uploEll
libonemkl.so.0:_ZN6oneapi3mkl6lapack6detail21sytrf_scratchpad_sizeIfLPv0EEElNS0_6deviceERN2cl4sycl5queueENS0_4uploEll
libonemkl.so.0:_ZN6oneapi3mkl6lapack6detail21trtrs_scratchpad_sizeISt7complexIdELPv0EEElNS0_6deviceERN2cl4sycl5queueENS0_4uploENS0_9transposeENS0_4diagEllll
libonemkl.so.0:_ZN6oneapi3mkl6lapack6detail21trtrs_scratchpad_sizeISt7complexIfELPv0EEElNS0_6deviceERN2cl4sycl5queueENS0_4uploENS0_9transposeENS0_4diagEllll
libonemkl.so.0:_ZN6oneapi3mkl6lapack6detail21trtrs_scratchpad_sizeIdLPv0EEElNS0_6deviceERN2cl4sycl5queueENS0_4uploENS0_9transposeENS0_4diagEllll
libonemkl.so.0:_ZN6oneapi3mkl6lapack6detail21trtrs_scratchpad_sizeIfLPv0EEElNS0_6deviceERN2cl4sycl5queueENS0_4uploENS0_9transposeENS0_4diagEllll
libonemkl.so.0:_ZN6oneapi3mkl6lapack6detail21ungbr_scratchpad_sizeISt7complexIdELPv0EEElNS0_6deviceERN2cl4sycl5queueENS0_8generateEllll
libonemkl.so.0:_ZN6oneapi3mkl6lapack6detail21ungbr_scratchpad_sizeISt7complexIfELPv0EEElNS0_6deviceERN2cl4sycl5queueENS0_8generateEllll
libonemkl.so.0:_ZN6oneapi3mkl6lapack6detail21ungqr_scratchpad_sizeISt7complexIdELPv0EEElNS0_6deviceERN2cl4sycl5queueEllll
libonemkl.so.0:_ZN6oneapi3mkl6lapack6detail21ungqr_scratchpad_sizeISt7complexIfELPv0EEElNS0_6deviceERN2cl4sycl5queueEllll
libonemkl.so.0:_ZN6oneapi3mkl6lapack6detail21ungtr_scratchpad_sizeISt7complexIdELPv0EEElNS0_6deviceERN2cl4sycl5queueENS0_4uploEll
libonemkl.so.0:_ZN6oneapi3mkl6lapack6detail21ungtr_scratchpad_sizeISt7complexIfELPv0EEElNS0_6deviceERN2cl4sycl5queueENS0_4uploEll
libonemkl.so.0:_ZN6oneapi3mkl6lapack6detail21unmqr_scratchpad_sizeISt7complexIdELPv0EEElNS0_6deviceERN2cl4sycl5queueENS0_4sideENS0_9transposeElllll
libonemkl.so.0:_ZN6oneapi3mkl6lapack6detail21unmqr_scratchpad_sizeISt7complexIfELPv0EEElNS0_6deviceERN2cl4sycl5queueENS0_4sideENS0_9transposeElllll
libonemkl.so.0:_ZN6oneapi3mkl6lapack6detail21unmrq_scratchpad_sizeISt7complexIdELPv0EEElNS0_6deviceERN2cl4sycl5queueENS0_4sideENS0_9transposeElllll
libonemkl.so.0:_ZN6oneapi3mkl6lapack6detail21unmrq_scratchpad_sizeISt7complexIfELPv0EEElNS0_6deviceERN2cl4sycl5queueENS0_4sideENS0_9transposeElllll
libonemkl.so.0:_ZN6oneapi3mkl6lapack6detail21unmtr_scratchpad_sizeISt7complexIdELPv0EEElNS0_6deviceERN2cl4sycl5queueENS0_4sideENS0_4uploENS0_9transposeEllll
libonemkl.so.0:_ZN6oneapi3mkl6lapack6detail21unmtr_scratchpad_sizeISt7complexIfELPv0EEElNS0_6deviceERN2cl4sycl5queueENS0_4sideENS0_4uploENS0_9transposeEllll
libonemkl.so.0:_ZN6oneapi3mkl6lapack6detail27geqrf_batch_scratchpad_sizeISt7complexIdELPv0EEElNS0_6deviceERN2cl4sycl5queueEPlSC_SC_lSC_
libonemkl.so.0:_ZN6oneapi3mkl6lapack6detail27geqrf_batch_scratchpad_sizeISt7complexIdELPv0EEElNS0_6deviceERN2cl4sycl5queueEllllll
libonemkl.so.0:_ZN6oneapi3mkl6lapack6detail27geqrf_batch_scratchpad_sizeISt7complexIfELPv0EEElNS0_6deviceERN2cl4sycl5queueEPlSC_SC_lSC_
libonemkl.so.0:_ZN6oneapi3mkl6lapack6detail27geqrf_batch_scratchpad_sizeISt7complexIfELPv0EEElNS0_6deviceERN2cl4sycl5queueEllllll
libonemkl.so.0:_ZN6oneapi3mkl6lapack6detail27geqrf_batch_scratchpad_sizeIdLPv0EEElNS0_6deviceERN2cl4sycl5queueEPlSA_SA_lSA_
libonemkl.so.0:_ZN6oneapi3mkl6lapack6detail27geqrf_batch_scratchpad_sizeIdLPv0EEElNS0_6deviceERN2cl4sycl5queueEllllll
libonemkl.so.0:_ZN6oneapi3mkl6lapack6detail27geqrf_batch_scratchpad_sizeIfLPv0EEElNS0_6deviceERN2cl4sycl5queueEPlSA_SA_lSA_
libonemkl.so.0:_ZN6oneapi3mkl6lapack6detail27geqrf_batch_scratchpad_sizeIfLPv0EEElNS0_6deviceERN2cl4sycl5queueEllllll
libonemkl.so.0:_ZN6oneapi3mkl6lapack6detail27getrf_batch_scratchpad_sizeISt7complexIdELPv0EEElNS0_6deviceERN2cl4sycl5queueEPlSC_SC_lSC_
libonemkl.so.0:_ZN6oneapi3mkl6lapack6detail27getrf_batch_scratchpad_sizeISt7complexIdELPv0EEElNS0_6deviceERN2cl4sycl5queueEllllll
libonemkl.so.0:_ZN6oneapi3mkl6lapack6detail27getrf_batch_scratchpad_sizeISt7complexIfELPv0EEElNS0_6deviceERN2cl4sycl5queueEPlSC_SC_lSC_
libonemkl.so.0:_ZN6oneapi3mkl6lapack6detail27getrf_batch_scratchpad_sizeISt7complexIfELPv0EEElNS0_6deviceERN2cl4sycl5queueEllllll
libonemkl.so.0:_ZN6oneapi3mkl6lapack6detail27getrf_batch_scratchpad_sizeIdLPv0EEElNS0_6deviceERN2cl4sycl5queueEPlSA_SA_lSA_
libonemkl.so.0:_ZN6oneapi3mkl6lapack6detail27getrf_batch_scratchpad_sizeIdLPv0EEElNS0_6deviceERN2cl4sycl5queueEllllll
libonemkl.so.0:_ZN6oneapi3mkl6lapack6detail27getrf_batch_scratchpad_sizeIfLPv0EEElNS0_6deviceERN2cl4sycl5queueEPlSA_SA_lSA_
libonemkl.so.0:_ZN6oneapi3mkl6lapack6detail27getrf_batch_scratchpad_sizeIfLPv0EEElNS0_6deviceERN2cl4sycl5queueEllllll
libonemkl.so.0:_ZN6oneapi3mkl6lapack6detail27getri_batch_scratchpad_sizeISt7complexIdELPv0EEElNS0_6deviceERN2cl4sycl5queueEPlSC_lSC_
libonemkl.so.0:_ZN6oneapi3mkl6lapack6detail27getri_batch_scratchpad_sizeISt7complexIdELPv0EEElNS0_6deviceERN2cl4sycl5queueElllll
libonemkl.so.0:_ZN6oneapi3mkl6lapack6detail27getri_batch_scratchpad_sizeISt7complexIfELPv0EEElNS0_6deviceERN2cl4sycl5queueEPlSC_lSC_
libonemkl.so.0:_ZN6oneapi3mkl6lapack6detail27getri_batch_scratchpad_sizeISt7complexIfELPv0EEElNS0_6deviceERN2cl4sycl5queueElllll
libonemkl.so.0:_ZN6oneapi3mkl6lapack6detail27getri_batch_scratchpad_sizeIdLPv0EEElNS0_6deviceERN2cl4sycl5queueEPlSA_lSA_
libonemkl.so.0:_ZN6oneapi3mkl6lapack6detail27getri_batch_scratchpad_sizeIdLPv0EEElNS0_6deviceERN2cl4sycl5queueElllll
libonemkl.so.0:_ZN6oneapi3mkl6lapack6detail27getri_batch_scratchpad_sizeIfLPv0EEElNS0_6deviceERN2cl4sycl5queueEPlSA_lSA_
libonemkl.so.0:_ZN6oneapi3mkl6lapack6detail27getri_batch_scratchpad_sizeIfLPv0EEElNS0_6deviceERN2cl4sycl5queueElllll
libonemkl.so.0:_ZN6oneapi3mkl6lapack6detail27getrs_batch_scratchpad_sizeISt7complexIdELPv0EEElNS0_6deviceERN2cl4sycl5queueENS0_9transposeEllllllll
libonemkl.so.0:_ZN6oneapi3mkl6lapack6detail27getrs_batch_scratchpad_sizeISt7complexIdELPv0EEElNS0_6deviceERN2cl4sycl5queueEPNS0_9transposeEPlSE_SE_SE_lSE_
libonemkl.so.0:_ZN6oneapi3mkl6lapack6detail27getrs_batch_scratchpad_sizeISt7complexIfELPv0EEElNS0_6deviceERN2cl4sycl5queueENS0_9transposeEllllllll
libonemkl.so.0:_ZN6oneapi3mkl6lapack6detail27getrs_batch_scratchpad_sizeISt7complexIfELPv0EEElNS0_6deviceERN2cl4sycl5queueEPNS0_9transposeEPlSE_SE_SE_lSE_
libonemkl.so.0:_ZN6oneapi3mkl6lapack6detail27getrs_batch_scratchpad_sizeIdLPv0EEElNS0_6deviceERN2cl4sycl5queueENS0_9transposeEllllllll
libonemkl.so.0:_ZN6oneapi3mkl6lapack6detail27getrs_batch_scratchpad_sizeIdLPv0EEElNS0_6deviceERN2cl4sycl5queueEPNS0_9transposeEPlSC_SC_SC_lSC_
libonemkl.so.0:_ZN6oneapi3mkl6lapack6detail27getrs_batch_scratchpad_sizeIfLPv0EEElNS0_6deviceERN2cl4sycl5queueENS0_9transposeEllllllll
libonemkl.so.0:_ZN6oneapi3mkl6lapack6detail27getrs_batch_scratchpad_sizeIfLPv0EEElNS0_6deviceERN2cl4sycl5queueEPNS0_9transposeEPlSC_SC_SC_lSC_
libonemkl.so.0:_ZN6oneapi3mkl6lapack6detail27orgqr_batch_scratchpad_sizeIdLPv0EEElNS0_6deviceERN2cl4sycl5queueEPlSA_SA_SA_lSA_
libonemkl.so.0:_ZN6oneapi3mkl6lapack6detail27orgqr_batch_scratchpad_sizeIdLPv0EEElNS0_6deviceERN2cl4sycl5queueElllllll
libonemkl.so.0:_ZN6oneapi3mkl6lapack6detail27orgqr_batch_scratchpad_sizeIfLPv0EEElNS0_6deviceERN2cl4sycl5queueEPlSA_SA_SA_lSA_
libonemkl.so.0:_ZN6oneapi3mkl6lapack6detail27orgqr_batch_scratchpad_sizeIfLPv0EEElNS0_6deviceERN2cl4sycl5queueElllllll
libonemkl.so.0:_ZN6oneapi3mkl6lapack6detail27potrf_batch_scratchpad_sizeISt7complexIdELPv0EEElNS0_6deviceERN2cl4sycl5queueENS0_4uploEllll
libonemkl.so.0:_ZN6oneapi3mkl6lapack6detail27potrf_batch_scratchpad_sizeISt7complexIdELPv0EEElNS0_6deviceERN2cl4sycl5queueEPNS0_4uploEPlSE_lSE_
libonemkl.so.0:_ZN6oneapi3mkl6lapack6detail27potrf_batch_scratchpad_sizeISt7complexIfELPv0EEElNS0_6deviceERN2cl4sycl5queueENS0_4uploEllll
libonemkl.so.0:_ZN6oneapi3mkl6lapack6detail27potrf_batch_scratchpad_sizeISt7complexIfELPv0EEElNS0_6deviceERN2cl4sycl5queueEPNS0_4uploEPlSE_lSE_
libonemkl.so.0:_ZN6oneapi3mkl6lapack6detail27potrf_batch_scratchpad_sizeIdLPv0EEElNS0_6deviceERN2cl4sycl5queueENS0_4uploEllll
libonemkl.so.0:_ZN6oneapi3mkl6lapack6detail27potrf_batch_scratchpad_sizeIdLPv0EEElNS0_6deviceERN2cl4sycl5queueEPNS0_4uploEPlSC_lSC_
libonemkl.so.0:_ZN6oneapi3mkl6lapack6detail27potrf_batch_scratchpad_sizeIfLPv0EEElNS0_6deviceERN2cl4sycl5queueENS0_4uploEllll
libonemkl.so.0:_ZN6oneapi3mkl6lapack6detail27potrf_batch_scratchpad_sizeIfLPv0EEElNS0_6deviceERN2cl4sycl5queueEPNS0_4uploEPlSC_lSC_
libonemkl.so.0:_ZN6oneapi3mkl6lapack6detail27potrs_batch_scratchpad_sizeISt7complexIdELPv0EEElNS0_6deviceERN2cl4sycl5queueENS0_4uploElllllll
libonemkl.so.0:_ZN6oneapi3mkl6lapack6detail27potrs_batch_scratchpad_sizeISt7complexIdELPv0EEElNS0_6deviceERN2cl4sycl5queueEPNS0_4uploEPlSE_SE_SE_lSE_
libonemkl.so.0:_ZN6oneapi3mkl6lapack6detail27potrs_batch_scratchpad_sizeISt7complexIfELPv0EEElNS0_6deviceERN2cl4sycl5queueENS0_4uploElllllll
libonemkl.so.0:_ZN6oneapi3mkl6lapack6detail27potrs_batch_scratchpad_sizeISt7complexIfELPv0EEElNS0_6deviceERN2cl4sycl5queueEPNS0_4uploEPlSE_SE_SE_lSE_
libonemkl.so.0:_ZN6oneapi3mkl6lapack6detail27potrs_batch_scratchpad_sizeIdLPv0EEElNS0_6deviceERN2cl4sycl5queueENS0_4uploElllllll
libonemkl.so.0:_ZN6oneapi3mkl6lapack6detail27potrs_batch_scratchpad_sizeIdLPv0EEElNS0_6deviceERN2cl4sycl5queueEPNS0_4uploEPlSC_SC_SC_lSC_
libonemkl.so.0:_ZN6oneapi3mkl6lapack6detail27potrs_batch_scratchpad_sizeIfLPv0EEElNS0_6deviceERN2cl4sycl5queueENS0_4uploElllllll
libonemkl.so.0:_ZN6oneapi3mkl6lapack6detail27potrs_batch_scratchpad_sizeIfLPv0EEElNS0_6deviceERN2cl4sycl5queueEPNS0_4uploEPlSC_SC_SC_lSC_
libonemkl.so.0:_ZN6oneapi3mkl6lapack6detail27ungqr_batch_scratchpad_sizeISt7complexIdELPv0EEElNS0_6deviceERN2cl4sycl5queueEPlSC_SC_SC_lSC_
libonemkl.so.0:_ZN6oneapi3mkl6lapack6detail27ungqr_batch_scratchpad_sizeISt7complexIdELPv0EEElNS0_6deviceERN2cl4sycl5queueElllllll
libonemkl.so.0:_ZN6oneapi3mkl6lapack6detail27ungqr_batch_scratchpad_sizeISt7complexIfELPv0EEElNS0_6deviceERN2cl4sycl5queueEPlSC_SC_SC_lSC_
libonemkl.so.0:_ZN6oneapi3mkl6lapack6detail27ungqr_batch_scratchpad_sizeISt7complexIfELPv0EEElNS0_6deviceERN2cl4sycl5queueElllllll
libonemkl.so.0:_ZN6oneapi3mkl6lapack6detail5gebrdENS0_6deviceERN2cl4sycl5queueEllPSt7complexIdElPdSB_SA_SA_SA_lRKSt6vectorINS5_5eventESaISD_EE
libonemkl.so.0:_ZN6oneapi3mkl6lapack6detail5gebrdENS0_6deviceERN2cl4sycl5queueEllPSt7complexIfElPfSB_SA_SA_SA_lRKSt6vectorINS5_5eventESaISD_EE
libonemkl.so.0:_ZN6oneapi3mkl6lapack6detail5gebrdENS0_6deviceERN2cl4sycl5queueEllPdlS8_S8_S8_S8_S8_lRKSt6vectorINS5_5eventESaISA_EE
libonemkl.so.0:_ZN6oneapi3mkl6lapack6detail5gebrdENS0_6deviceERN2cl4sycl5queueEllPflS8_S8_S8_S8_S8_lRKSt6vectorINS5_5eventESaISA_EE
libonemkl.so.0:_ZN6oneapi3mkl6lapack6detail5gebrdENS0_6deviceERN2cl4sycl5queueEllRNS5_6bufferISt7complexIdELi1ENS5_6detail17aligned_allocatorIcEEvEElRNS8_IdLi1ESD_vEESH_SF_SF_SF_l
libonemkl.so.0:_ZN6oneapi3mkl6lapack6detail5gebrdENS0_6deviceERN2cl4sycl5queueEllRNS5_6bufferISt7complexIfELi1ENS5_6detail17aligned_allocatorIcEEvEElRNS8_IfLi1ESD_vEESH_SF_SF_SF_l
libonemkl.so.0:_ZN6oneapi3mkl6lapack6detail5gebrdENS0_6deviceERN2cl4sycl5queueEllRNS5_6bufferIdLi1ENS5_6detail17aligned_allocatorIcEEvEElSD_SD_SD_SD_SD_l
libonemkl.so.0:_ZN6oneapi3mkl6lapack6detail5gebrdENS0_6deviceERN2cl4sycl5queueEllRNS5_6bufferIfLi1ENS5_6detail17aligned_allocatorIcEEvEElSD_SD_SD_SD_SD_l
libonemkl.so.0:_ZN6oneapi3mkl6lapack6detail5geqrfENS0_6deviceERN2cl4sycl5queueEllPSt7complexIdElSA_SA_lRKSt6vectorINS5_5eventESaISC_EE
libonemkl.so.0:_ZN6oneapi3mkl6lapack6detail5geqrfENS0_6deviceERN2cl4sycl5queueEllPSt7complexIfElSA_SA_lRKSt6vectorINS5_5eventESaISC_EE
libonemkl.so.0:_ZN6oneapi3mkl6lapack6detail5geqrfENS0_6deviceERN2cl4sycl5queueEllPdlS8_S8_lRKSt6vectorINS5_5eventESaISA_EE
libonemkl.so.0:_ZN6oneapi3mkl6lapack6detail5geqrfENS0_6deviceERN2cl4sycl5queueEllPflS8_S8_lRKSt6vectorINS5_5eventESaISA_EE
libonemkl.so.0:_ZN6oneapi3mkl6lapack6detail5geqrfENS0_6deviceERN2cl4sycl5queueEllRNS5_6bufferISt7complexIdELi1ENS5_6detail17aligned_allocatorIcEEvEElSF_SF_l
libonemkl.so.0:_ZN6oneapi3mkl6lapack6detail5geqrfENS0_6deviceERN2cl4sycl5queueEllRNS5_6bufferISt7complexIfELi1ENS5_6detail17aligned_allocatorIcEEvEElSF_SF_l
libonemkl.so.0:_ZN6oneapi3mkl6lapack6detail5geqrfENS0_6deviceERN2cl4sycl5queueEllRNS5_6bufferIdLi1ENS5_6detail17aligned_allocatorIcEEvEElSD_SD_l
libonemkl.so.0:_ZN6oneapi3mkl6lapack6detail5geqrfENS0_6deviceERN2cl4sycl5queueEllRNS5_6bufferIfLi1ENS5_6detail17aligned_allocatorIcEEvEElSD_SD_l
libonemkl.so.0:_ZN6oneapi3mkl6lapack6detail5gerqfENS0_6deviceERN2cl4sycl5queueEllPSt7complexIdElSA_SA_lRKSt6vectorINS5_5eventESaISC_EE
libonemkl.so.0:_ZN6oneapi3mkl6lapack6detail5gerqfENS0_6deviceERN2cl4sycl5queueEllPSt7complexIfElSA_SA_lRKSt6vectorINS5_5eventESaISC_EE
libonemkl.so.0:_ZN6oneapi3mkl6lapack6detail5gerqfENS0_6deviceERN2cl4sycl5queueEllPdlS8_S8_lRKSt6vectorINS5_5eventESaISA_EE
libonemkl.so.0:_ZN6oneapi3mkl6lapack6detail5gerqfENS0_6deviceERN2cl4sycl5queueEllPflS8_S8_lRKSt6vectorINS5_5eventESaISA_EE
libonemkl.so.0:_ZN6oneapi3mkl6lapack6detail5gerqfENS0_6deviceERN2cl4sycl5queueEllRNS5_6bufferISt7complexIdELi1ENS5_6detail17aligned_allocatorIcEEvEElSF_SF_l
libonemkl.so.0:_ZN6oneapi3mkl6lapack6detail5gerqfENS0_6deviceERN2cl4sycl5queueEllRNS5_6bufferISt7complexIfELi1ENS5_6detail17aligned_allocatorIcEEvEElSF_SF_l
libonemkl.so.0:_ZN6oneapi3mkl6lapack6detail5gerqfENS0_6deviceERN2cl4sycl5queueEllRNS5_6bufferIdLi1ENS5_6detail17aligned_allocatorIcEEvEElSD_SD_l
libonemkl.so.0:_ZN6oneapi3mkl6lapack6detail5gerqfENS0_6deviceERN2cl4sycl5queueEllRNS5_6bufferIfLi1ENS5_6detail17aligned_allocatorIcEEvEElSD_SD_l
libonemkl.so.0:_ZN6oneapi3mkl6lapack6detail5gesvdENS0_6deviceERN2cl4sycl5queueENS0_6jobsvdES8_llPSt7complexIdElPdSB_lSB_lSB_lRKSt6vectorINS5_5eventESaISE_EE
libonemkl.so.0:_ZN6oneapi3mkl6lapack6detail5gesvdENS0_6deviceERN2cl4sycl5queueENS0_6jobsvdES8_llPSt7complexIfElPfSB_lSB_lSB_lRKSt6vectorINS5_5eventESaISE_EE
libonemkl.so.0:_ZN6oneapi3mkl6lapack6detail5gesvdENS0_6deviceERN2cl4sycl5queueENS0_6jobsvdES8_llPdlS9_S9_lS9_lS9_lRKSt6vectorINS5_5eventESaISB_EE
libonemkl.so.0:_ZN6oneapi3mkl6lapack6detail5gesvdENS0_6deviceERN2cl4sycl5queueENS0_6jobsvdES8_llPflS9_S9_lS9_lS9_lRKSt6vectorINS5_5eventESaISB_EE
libonemkl.so.0:_ZN6oneapi3mkl6lapack6detail5gesvdENS0_6deviceERN2cl4sycl5queueENS0_6jobsvdES8_llRNS5_6bufferISt7complexIdELi1ENS5_6detail17aligned_allocatorIcEEvEElRNS9_IdLi1ESE_vEESG_lSG_lSG_l
libonemkl.so.0:_ZN6oneapi3mkl6lapack6detail5gesvdENS0_6deviceERN2cl4sycl5queueENS0_6jobsvdES8_llRNS5_6bufferISt7complexIfELi1ENS5_6detail17aligned_allocatorIcEEvEElRNS9_IfLi1ESE_vEESG_lSG_lSG_l
libonemkl.so.0:_ZN6oneapi3mkl6lapack6detail5gesvdENS0_6deviceERN2cl4sycl5queueENS0_6jobsvdES8_llRNS5_6bufferIdLi1ENS5_6detail17aligned_allocatorIcEEvEElSE_SE_lSE_lSE_l
libonemkl.so.0:_ZN6oneapi3mkl6lapack6detail5gesvdENS0_6deviceERN2cl4sycl5queueENS0_6jobsvdES8_llRNS5_6bufferIfLi1ENS5_6detail17aligned_allocatorIcEEvEElSE_SE_lSE_lSE_l
libonemkl.so.0:_ZN6oneapi3mkl6lapack6detail5getrfENS0_6deviceERN2cl4sycl5queueEllPSt7complexIdElPlSA_lRKSt6vectorINS5_5eventESaISD_EE
libonemkl.so.0:_ZN6oneapi3mkl6lapack6detail5getrfENS0_6deviceERN2cl4sycl5queueEllPSt7complexIfElPlSA_lRKSt6vectorINS5_5eventESaISD_EE
libonemkl.so.0:_ZN6oneapi3mkl6lapack6detail5getrfENS0_6deviceERN2cl4sycl5queueEllPdlPlS8_lRKSt6vectorINS5_5eventESaISB_EE
libonemkl.so.0:_ZN6oneapi3mkl6lapack6detail5getrfENS0_6deviceERN2cl4sycl5queueEllPflPlS8_lRKSt6vectorINS5_5eventESaISB_EE
libonemkl.so.0:_ZN6oneapi3mkl6lapack6detail5getrfENS0_6deviceERN2cl4sycl5queueEllRNS5_6bufferISt7complexIdELi1ENS5_6detail17aligned_allocatorIcEEvEElRNS8_IlLi1ESD_vEESF_l
libonemkl.so.0:_ZN6oneapi3mkl6lapack6detail5getrfENS0_6deviceERN2cl4sycl5queueEllRNS5_6bufferISt7complexIfELi1ENS5_6detail17aligned_allocatorIcEEvEElRNS8_IlLi1ESD_vEESF_l
libonemkl.so.0:_ZN6oneapi3mkl6lapack6detail5getrfENS0_6deviceERN2cl4sycl5queueEllRNS5_6bufferIdLi1ENS5_6detail17aligned_allocatorIcEEvEElRNS8_IlLi1ESB_vEESD_l
libonemkl.so.0:_ZN6oneapi3mkl6lapack6detail5getrfENS0_6deviceERN2cl4sycl5queueEllRNS5_6bufferIfLi1ENS5_6detail17aligned_allocatorIcEEvEElRNS8_IlLi1ESB_vEESD_l
libonemkl.so.0:_ZN6oneapi3mkl6lapack6detail5getriENS0_6deviceERN2cl4sycl5queueElPSt7complexIdElPlSA_lRKSt6vectorINS5_5eventESaISD_EE
libonemkl.so.0:_ZN6oneapi3mkl6lapack6detail5getriENS0_6deviceERN2cl4sycl5queueElPSt7complexIfElPlSA_lRKSt6vectorINS5_5eventESaISD_EE
libonemkl.so.0:_ZN6oneapi3mkl6lapack6detail5getriENS0_6deviceERN2cl4sycl5queueElPdlPlS8_lRKSt6vectorINS5_5eventESaISB_EE
libonemkl.so.0:_ZN6oneapi3mkl6lapack6detail5getriENS0_6deviceERN2cl4sycl5queueElPflPlS8_lRKSt6vectorINS5_5eventESaISB_EE
libonemkl.so.0:_ZN6oneapi3mkl6lapack6detail5getriENS0_6deviceERN2cl4sycl5queueElRNS5_6bufferISt7complexIdELi1ENS5_6detail17aligned_allocatorIcEEvEElRNS8_IlLi1ESD_vEESF_l
libonemkl.so.0:_ZN6oneapi3mkl6lapack6detail5getriENS0_6deviceERN2cl4sycl5queueElRNS5_6bufferISt7complexIfELi1ENS5_6detail17aligned_allocatorIcEEvEElRNS8_IlLi1ESD_vEESF_l
libonemkl.so.0:_ZN6oneapi3mkl6lapack6detail5getriENS0_6deviceERN2cl4sycl5queueElRNS5_6bufferIdLi1ENS5_6detail17aligned_allocatorIcEEvEElRNS8_IlLi1ESB_vEESD_l
libonemkl.so.0:_ZN6oneapi3mkl6lapack6detail5getriENS0_6deviceERN2cl4sycl5queueElRNS5_6bufferIfLi1ENS5_6detail17aligned_allocatorIcEEvEElRNS8_IlLi1ESB_vEESD_l
libonemkl.so.0:_ZN6oneapi3mkl6lapack6detail5getrsENS0_6deviceERN2cl4sycl5queueENS0_9transposeEllPSt7complexIdElPlSB_lSB_lRKSt6vectorINS5_5eventESaISE_EE
libonemkl.so.0:_ZN6oneapi3mkl6lapack6detail5getrsENS0_6deviceERN2cl4sycl5queueENS0_9transposeEllPSt7complexIfElPlSB_lSB_lRKSt6vectorINS5_5eventESaISE_EE
libonemkl.so.0:_ZN6oneapi3mkl6lapack6detail5getrsENS0_6deviceERN2cl4sycl5queueENS0_9transposeEllPdlPlS9_lS9_lRKSt6vectorINS5_5eventESaISC_EE
libonemkl.so.0:_ZN6oneapi3mkl6lapack6detail5getrsENS0_6deviceERN2cl4sycl5queueENS0_9transposeEllPflPlS9_lS9_lRKSt6vectorINS5_5eventESaISC_EE
libonemkl.so.0:_ZN6oneapi3mkl6lapack6detail5getrsENS0_6deviceERN2cl4sycl5queueENS0_9transposeEllRNS5_6bufferISt7complexIdELi1ENS5_6detail17aligned_allocatorIcEEvEElRNS9_IlLi1ESE_vEESG_lSG_l
libonemkl.so.0:_ZN6oneapi3mkl6lapack6detail5getrsENS0_6deviceERN2cl4sycl5queueENS0_9transposeEllRNS5_6bufferISt7complexIfELi1ENS5_6detail17aligned_allocatorIcEEvEElRNS9_IlLi1ESE_vEESG_lSG_l
libonemkl.so.0:_ZN6oneapi3mkl6lapack6detail5getrsENS0_6deviceERN2cl4sycl5queueENS0_9transposeEllRNS5_6bufferIdLi1ENS5_6detail17aligned_allocatorIcEEvEElRNS9_IlLi1ESC_vEESE_lSE_l
libonemkl.so.0:_ZN6oneapi3mkl6lapack6detail5getrsENS0_6deviceERN2cl4sycl5queueENS0_9transposeEllRNS5_6bufferIfLi1ENS5_6detail17aligned_allocatorIcEEvEElRNS9_IlLi1ESC_vEESE_lSE_l
libonemkl.so.0:_ZN6oneapi3mkl6lapack6detail5heevdENS0_6deviceERN2cl4sycl5queueENS0_3jobENS0_4uploElPSt7complexIdElPdSC_lRKSt6vectorINS5_5eventESaISF_EE
libonemkl.so.0:_ZN6oneapi3mkl6lapack6detail5heevdENS0_6deviceERN2cl4sycl5queueENS0_3jobENS0_4uploElPSt7complexIfElPfSC_lRKSt6vectorINS5_5eventESaISF_EE
libonemkl.so.0:_ZN6oneapi3mkl6lapack6detail5heevdENS0_6deviceERN2cl4sycl5queueENS0_3jobENS0_4uploElRNS5_6bufferISt7complexIdELi1ENS5_6detail17aligned_allocatorIcEEvEElRNSA_IdLi1ESF_vEESH_l
libonemkl.so.0:_ZN6oneapi3mkl6lapack6detail5heevdENS0_6deviceERN2cl4sycl5queueENS0_3jobENS0_4uploElRNS5_6bufferISt7complexIfELi1ENS5_6detail17aligned_allocatorIcEEvEElRNSA_IfLi1ESF_vEESH_l
libonemkl.so.0:_ZN6oneapi3mkl6lapack6detail5hegvdENS0_6deviceERN2cl4sycl5queueElNS0_3jobENS0_4uploElPSt7complexIdElSC_lPdSC_lRKSt6vectorINS5_5eventESaISF_EE
libonemkl.so.0:_ZN6oneapi3mkl6lapack6detail5hegvdENS0_6deviceERN2cl4sycl5queueElNS0_3jobENS0_4uploElPSt7complexIfElSC_lPfSC_lRKSt6vectorINS5_5eventESaISF_EE
libonemkl.so.0:_ZN6oneapi3mkl6lapack6detail5hegvdENS0_6deviceERN2cl4sycl5queueElNS0_3jobENS0_4uploElRNS5_6bufferISt7complexIdELi1ENS5_6detail17aligned_allocatorIcEEvEElSH_lRNSA_IdLi1ESF_vEESH_l
libonemkl.so.0:_ZN6oneapi3mkl6lapack6detail5hegvdENS0_6deviceERN2cl4sycl5queueElNS0_3jobENS0_4uploElRNS5_6bufferISt7complexIfELi1ENS5_6detail17aligned_allocatorIcEEvEElSH_lRNSA_IfLi1ESF_vEESH_l
libonemkl.so.0:_ZN6oneapi3mkl6lapack6detail5hetrdENS0_6deviceERN2cl4sycl5queueENS0_4uploElPSt7complexIdElPdSC_SB_SB_lRKSt6vectorINS5_5eventESaISE_EE
libonemkl.so.0:_ZN6oneapi3mkl6lapack6detail5hetrdENS0_6deviceERN2cl4sycl5queueENS0_4uploElPSt7complexIfElPfSC_SB_SB_lRKSt6vectorINS5_5eventESaISE_EE
libonemkl.so.0:_ZN6oneapi3mkl6lapack6detail5hetrdENS0_6deviceERN2cl4sycl5queueENS0_4uploElRNS5_6bufferISt7complexIdELi1ENS5_6detail17aligned_allocatorIcEEvEElRNS9_IdLi1ESE_vEESI_SG_SG_l
libonemkl.so.0:_ZN6oneapi3mkl6lapack6detail5hetrdENS0_6deviceERN2cl4sycl5queueENS0_4uploElRNS5_6bufferISt7complexIfELi1ENS5_6detail17aligned_allocatorIcEEvEElRNS9_IfLi1ESE_vEESI_SG_SG_l
libonemkl.so.0:_ZN6oneapi3mkl6lapack6detail5hetrfENS0_6deviceERN2cl4sycl5queueENS0_4uploElPSt7complexIdElPlSB_lRKSt6vectorINS5_5eventESaISE_EE
libonemkl.so.0:_ZN6oneapi3mkl6lapack6detail5hetrfENS0_6deviceERN2cl4sycl5queueENS0_4uploElPSt7complexIfElPlSB_lRKSt6vectorINS5_5eventESaISE_EE
libonemkl.so.0:_ZN6oneapi3mkl6lapack6detail5hetrfENS0_6deviceERN2cl4sycl5queueENS0_4uploElRNS5_6bufferISt7complexIdELi1ENS5_6detail17aligned_allocatorIcEEvEElRNS9_IlLi1ESE_vEESG_l
libonemkl.so.0:_ZN6oneapi3mkl6lapack6detail5hetrfENS0_6deviceERN2cl4sycl5queueENS0_4uploElRNS5_6bufferISt7complexIfELi1ENS5_6detail17aligned_allocatorIcEEvEElRNS9_IlLi1ESE_vEESG_l
libonemkl.so.0:_ZN6oneapi3mkl6lapack6detail5orgbrENS0_6deviceERN2cl4sycl5queueENS0_8generateElllPdlS9_S9_lRKSt6vectorINS5_5eventESaISB_EE
libonemkl.so.0:_ZN6oneapi3mkl6lapack6detail5orgbrENS0_6deviceERN2cl4sycl5queueENS0_8generateElllPflS9_S9_lRKSt6vectorINS5_5eventESaISB_EE
libonemkl.so.0:_ZN6oneapi3mkl6lapack6detail5orgbrENS0_6deviceERN2cl4sycl5queueENS0_8generateElllRNS5_6bufferIdLi1ENS5_6detail17aligned_allocatorIcEEvEElSE_SE_l
libonemkl.so.0:_ZN6oneapi3mkl6lapack6detail5orgbrENS0_6deviceERN2cl4sycl5queueENS0_8generateElllRNS5_6bufferIfLi1ENS5_6detail17aligned_allocatorIcEEvEElSE_SE_l
libonemkl.so.0:_ZN6oneapi3mkl6lapack6detail5orgqrENS0_6deviceERN2cl4sycl5queueElllPdlS8_S8_lRKSt6vectorINS5_5eventESaISA_EE
libonemkl.so.0:_ZN6oneapi3mkl6lapack6detail5orgqrENS0_6deviceERN2cl4sycl5queueElllPflS8_S8_lRKSt6vectorINS5_5eventESaISA_EE
libonemkl.so.0:_ZN6oneapi3mkl6lapack6detail5orgqrENS0_6deviceERN2cl4sycl5queueElllRNS5_6bufferIdLi1ENS5_6detail17aligned_allocatorIcEEvEElSD_SD_l
libonemkl.so.0:_ZN6oneapi3mkl6lapack6detail5orgqrENS0_6deviceERN2cl4sycl5queueElllRNS5_6bufferIfLi1ENS5_6detail17aligned_allocatorIcEEvEElSD_SD_l
libonemkl.so.0:_ZN6oneapi3mkl6lapack6detail5orgtrENS0_6deviceERN2cl4sycl5queueENS0_4uploElPdlS9_S9_lRKSt6vectorINS5_5eventESaISB_EE
libonemkl.so.0:_ZN6oneapi3mkl6lapack6detail5orgtrENS0_6deviceERN2cl4sycl5queueENS0_4uploElPflS9_S9_lRKSt6vectorINS5_5eventESaISB_EE
libonemkl.so.0:_ZN6oneapi3mkl6lapack6detail5orgtrENS0_6deviceERN2cl4sycl5queueENS0_4uploElRNS5_6bufferIdLi1ENS5_6detail17aligned_allocatorIcEEvEElSE_SE_l
libonemkl.so.0:_ZN6oneapi3mkl6lapack6detail5orgtrENS0_6deviceERN2cl4sycl5queueENS0_4uploElRNS5_6bufferIfLi1ENS5_6detail17aligned_allocatorIcEEvEElSE_SE_l
libonemkl.so.0:_ZN6oneapi3mkl6lapack6detail5ormqrENS0_6deviceERN2cl4sycl5queueENS0_4sideENS0_9transposeElllPdlSA_SA_lSA_lRKSt6vectorINS5_5eventESaISC_EE
libonemkl.so.0:_ZN6oneapi3mkl6lapack6detail5ormqrENS0_6deviceERN2cl4sycl5queueENS0_4sideENS0_9transposeElllPflSA_SA_lSA_lRKSt6vectorINS5_5eventESaISC_EE
libonemkl.so.0:_ZN6oneapi3mkl6lapack6detail5ormqrENS0_6deviceERN2cl4sycl5queueENS0_4sideENS0_9transposeElllRNS5_6bufferIdLi1ENS5_6detail17aligned_allocatorIcEEvEElSF_SF_lSF_l
libonemkl.so.0:_ZN6oneapi3mkl6lapack6detail5ormqrENS0_6deviceERN2cl4sycl5queueENS0_4sideENS0_9transposeElllRNS5_6bufferIfLi1ENS5_6detail17aligned_allocatorIcEEvEElSF_SF_lSF_l
libonemkl.so.0:_ZN6oneapi3mkl6lapack6detail5ormrqENS0_6deviceERN2cl4sycl5queueENS0_4sideENS0_9transposeElllPdlSA_SA_lSA_lRKSt6vectorINS5_5eventESaISC_EE
libonemkl.so.0:_ZN6oneapi3mkl6lapack6detail5ormrqENS0_6deviceERN2cl4sycl5queueENS0_4sideENS0_9transposeElllPflSA_SA_lSA_lRKSt6vectorINS5_5eventESaISC_EE
libonemkl.so.0:_ZN6oneapi3mkl6lapack6detail5ormrqENS0_6deviceERN2cl4sycl5queueENS0_4sideENS0_9transposeElllRNS5_6bufferIdLi1ENS5_6detail17aligned_allocatorIcEEvEElSF_SF_lSF_l
libonemkl.so.0:_ZN6oneapi3mkl6lapack6detail5ormrqENS0_6deviceERN2cl4sycl5queueENS0_4sideENS0_9transposeElllRNS5_6bufferIfLi1ENS5_6detail17aligned_allocatorIcEEvEElSF_SF_lSF_l
libonemkl.so.0:_ZN6oneapi3mkl6lapack6detail5ormtrENS0_6deviceERN2cl4sycl5queueENS0_4sideENS0_4uploENS0_9transposeEllPdlSB_SB_lSB_lRKSt6vectorINS5_5eventESaISD_EE
libonemkl.so.0:_ZN6oneapi3mkl6lapack6detail5ormtrENS0_6deviceERN2cl4sycl5queueENS0_4sideENS0_4uploENS0_9transposeEllPflSB_SB_lSB_lRKSt6vectorINS5_5eventESaISD_EE
libonemkl.so.0:_ZN6oneapi3mkl6lapack6detail5ormtrENS0_6deviceERN2cl4sycl5queueENS0_4sideENS0_4uploENS0_9transposeEllRNS5_6bufferIdLi1ENS5_6detail17aligned_allocatorIcEEvEElSG_SG_lSG_l
libonemkl.so.0:_ZN6oneapi3mkl6lapack6detail5ormtrENS0_6deviceERN2cl4sycl5queueENS0_4sideENS0_4uploENS0_9transposeEllRNS5_6bufferIfLi1ENS5_6detail17aligned_allocatorIcEEvEElSG_SG_lSG_l
libonemkl.so.0:_ZN6oneapi3mkl6lapack6detail5potrfENS0_6deviceERN2cl4sycl5queueENS0_4uploElPSt7complexIdElSB_lRKSt6vectorINS5_5eventESaISD_EE
libonemkl.so.0:_ZN6oneapi3mkl6lapack6detail5potrfENS0_6deviceERN2cl4sycl5queueENS0_4uploElPSt7complexIfElSB_lRKSt6vectorINS5_5eventESaISD_EE
libonemkl.so.0:_ZN6oneapi3mkl6lapack6detail5potrfENS0_6deviceERN2cl4sycl5queueENS0_4uploElPdlS9_lRKSt6vectorINS5_5eventESaISB_EE
libonemkl.so.0:_ZN6oneapi3mkl6lapack6detail5potrfENS0_6deviceERN2cl4sycl5queueENS0_4uploElPflS9_lRKSt6vectorINS5_5eventESaISB_EE
libonemkl.so.0:_ZN6oneapi3mkl6lapack6detail5potrfENS0_6deviceERN2cl4sycl5queueENS0_4uploElRNS5_6bufferISt7complexIdELi1ENS5_6detail17aligned_allocatorIcEEvEElSG_l
libonemkl.so.0:_ZN6oneapi3mkl6lapack6detail5potrfENS0_6deviceERN2cl4sycl5queueENS0_4uploElRNS5_6bufferISt7complexIfELi1ENS5_6detail17aligned_allocatorIcEEvEElSG_l
libonemkl.so.0:_ZN6oneapi3mkl6lapack6detail5potrfENS0_6deviceERN2cl4sycl5queueENS0_4uploElRNS5_6bufferIdLi1ENS5_6detail17aligned_allocatorIcEEvEElSE_l
libonemkl.so.0:_ZN6oneapi3mkl6lapack6detail5potrfENS0_6deviceERN2cl4sycl5queueENS0_4uploElRNS5_6bufferIfLi1ENS5_6detail17aligned_allocatorIcEEvEElSE_l
libonemkl.so.0:_ZN6oneapi3mkl6lapack6detail5potriENS0_6deviceERN2cl4sycl5queueENS0_4uploElPSt7complexIdElSB_lRKSt6vectorINS5_5eventESaISD_EE
libonemkl.so.0:_ZN6oneapi3mkl6lapack6detail5potriENS0_6deviceERN2cl4sycl5queueENS0_4uploElPSt7complexIfElSB_lRKSt6vectorINS5_5eventESaISD_EE
libonemkl.so.0:_ZN6oneapi3mkl6lapack6detail5potriENS0_6deviceERN2cl4sycl5queueENS0_4uploElPdlS9_lRKSt6vectorINS5_5eventESaISB_EE
libonemkl.so.0:_ZN6oneapi3mkl6lapack6detail5potriENS0_6deviceERN2cl4sycl5queueENS0_4uploElPflS9_lRKSt6vectorINS5_5eventESaISB_EE
libonemkl.so.0:_ZN6oneapi3mkl6lapack6detail5potriENS0_6deviceERN2cl4sycl5queueENS0_4uploElRNS5_6bufferISt7complexIdELi1ENS5_6detail17aligned_allocatorIcEEvEElSG_l
libonemkl.so.0:_ZN6oneapi3mkl6lapack6detail5potriENS0_6deviceERN2cl4sycl5queueENS0_4uploElRNS5_6bufferISt7complexIfELi1ENS5_6detail17aligned_allocatorIcEEvEElSG_l
libonemkl.so.0:_ZN6oneapi3mkl6lapack6detail5potriENS0_6deviceERN2cl4sycl5queueENS0_4uploElRNS5_6bufferIdLi1ENS5_6detail17aligned_allocatorIcEEvEElSE_l
libonemkl.so.0:_ZN6oneapi3mkl6lapack6detail5potriENS0_6deviceERN2cl4sycl5queueENS0_4uploElRNS5_6bufferIfLi1ENS5_6detail17aligned_allocatorIcEEvEElSE_l
libonemkl.so.0:_ZN6oneapi3mkl6lapack6detail5potrsENS0_6deviceERN2cl4sycl5queueENS0_4uploEllPSt7complexIdElSB_lSB_lRKSt6vectorINS5_5eventESaISD_EE
libonemkl.so.0:_ZN6oneapi3mkl6lapack6detail5potrsENS0_6deviceERN2cl4sycl5queueENS0_4uploEllPSt7complexIfElSB_lSB_lRKSt6vectorINS5_5eventESaISD_EE
libonemkl.so.0:_ZN6oneapi3mkl6lapack6detail5potrsENS0_6deviceERN2cl4sycl5queueENS0_4uploEllPdlS9_lS9_lRKSt6vectorINS5_5eventESaISB_EE
libonemkl.so.0:_ZN6oneapi3mkl6lapack6detail5potrsENS0_6deviceERN2cl4sycl5queueENS0_4uploEllPflS9_lS9_lRKSt6vectorINS5_5eventESaISB_EE
libonemkl.so.0:_ZN6oneapi3mkl6lapack6detail5potrsENS0_6deviceERN2cl4sycl5queueENS0_4uploEllRNS5_6bufferISt7complexIdELi1ENS5_6detail17aligned_allocatorIcEEvEElSG_lSG_l
libonemkl.so.0:_ZN6oneapi3mkl6lapack6detail5potrsENS0_6deviceERN2cl4sycl5queueENS0_4uploEllRNS5_6bufferISt7complexIfELi1ENS5_6detail17aligned_allocatorIcEEvEElSG_lSG_l
libonemkl.so.0:_ZN6oneapi3mkl6lapack6detail5potrsENS0_6deviceERN2cl4sycl5queueENS0_4uploEllRNS5_6bufferIdLi1ENS5_6detail17aligned_allocatorIcEEvEElSE_lSE_l
libonemkl.so.0:_ZN6oneapi3mkl6lapack6detail5potrsENS0_6deviceERN2cl4sycl5queueENS0_4uploEllRNS5_6bufferIfLi1ENS5_6detail17aligned_allocatorIcEEvEElSE_lSE_l
libonemkl.so.0:_ZN6oneapi3mkl6lapack6detail5syevdENS0_6deviceERN2cl4sycl5queueENS0_3jobENS0_4uploElPdlSA_SA_lRKSt6vectorINS5_5eventESaISC_EE
libonemkl.so.0:_ZN6oneapi3mkl6lapack6detail5syevdENS0_6deviceERN2cl4sycl5queueENS0_3jobENS0_4uploElPflSA_SA_lRKSt6vectorINS5_5eventESaISC_EE
libonemkl.so.0:_ZN6oneapi3mkl6lapack6detail5syevdENS0_6deviceERN2cl4sycl5queueENS0_3jobENS0_4uploElRNS5_6bufferIdLi1ENS5_6detail17aligned_allocatorIcEEvEElSF_SF_l
libonemkl.so.0:_ZN6oneapi3mkl6lapack6detail5syevdENS0_6deviceERN2cl4sycl5queueENS0_3jobENS0_4uploElRNS5_6bufferIfLi1ENS5_6detail17aligned_allocatorIcEEvEElSF_SF_l
libonemkl.so.0:_ZN6oneapi3mkl6lapack6detail5sygvdENS0_6deviceERN2cl4sycl5queueElNS0_3jobENS0_4uploElPdlSA_lSA_SA_lRKSt6vectorINS5_5eventESaISC_EE
libonemkl.so.0:_ZN6oneapi3mkl6lapack6detail5sygvdENS0_6deviceERN2cl4sycl5queueElNS0_3jobENS0_4uploElPflSA_lSA_SA_lRKSt6vectorINS5_5eventESaISC_EE
libonemkl.so.0:_ZN6oneapi3mkl6lapack6detail5sygvdENS0_6deviceERN2cl4sycl5queueElNS0_3jobENS0_4uploElRNS5_6bufferIdLi1ENS5_6detail17aligned_allocatorIcEEvEElSF_lSF_SF_l
libonemkl.so.0:_ZN6oneapi3mkl6lapack6detail5sygvdENS0_6deviceERN2cl4sycl5queueElNS0_3jobENS0_4uploElRNS5_6bufferIfLi1ENS5_6detail17aligned_allocatorIcEEvEElSF_lSF_SF_l
libonemkl.so.0:_ZN6oneapi3mkl6lapack6detail5sytrdENS0_6deviceERN2cl4sycl5queueENS0_4uploElPdlS9_S9_S9_S9_lRKSt6vectorINS5_5eventESaISB_EE
libonemkl.so.0:_ZN6oneapi3mkl6lapack6detail5sytrdENS0_6deviceERN2cl4sycl5queueENS0_4uploElPflS9_S9_S9_S9_lRKSt6vectorINS5_5eventESaISB_EE
libonemkl.so.0:_ZN6oneapi3mkl6lapack6detail5sytrdENS0_6deviceERN2cl4sycl5queueENS0_4uploElRNS5_6bufferIdLi1ENS5_6detail17aligned_allocatorIcEEvEElSE_SE_SE_SE_l
libonemkl.so.0:_ZN6oneapi3mkl6lapack6detail5sytrdENS0_6deviceERN2cl4sycl5queueENS0_4uploElRNS5_6bufferIfLi1ENS5_6detail17aligned_allocatorIcEEvEElSE_SE_SE_SE_l
libonemkl.so.0:_ZN6oneapi3mkl6lapack6detail5sytrfENS0_6deviceERN2cl4sycl5queueENS0_4uploElPSt7complexIdElPlSB_lRKSt6vectorINS5_5eventESaISE_EE
libonemkl.so.0:_ZN6oneapi3mkl6lapack6detail5sytrfENS0_6deviceERN2cl4sycl5queueENS0_4uploElPSt7complexIfElPlSB_lRKSt6vectorINS5_5eventESaISE_EE
libonemkl.so.0:_ZN6oneapi3mkl6lapack6detail5sytrfENS0_6deviceERN2cl4sycl5queueENS0_4uploElPdlPlS9_lRKSt6vectorINS5_5eventESaISC_EE
libonemkl.so.0:_ZN6oneapi3mkl6lapack6detail5sytrfENS0_6deviceERN2cl4sycl5queueENS0_4uploElPflPlS9_lRKSt6vectorINS5_5eventESaISC_EE
libonemkl.so.0:_ZN6oneapi3mkl6lapack6detail5sytrfENS0_6deviceERN2cl4sycl5queueENS0_4uploElRNS5_6bufferISt7complexIdELi1ENS5_6detail17aligned_allocatorIcEEvEElRNS9_IlLi1ESE_vEESG_l
libonemkl.so.0:_ZN6oneapi3mkl6lapack6detail5sytrfENS0_6deviceERN2cl4sycl5queueENS0_4uploElRNS5_6bufferISt7complexIfELi1ENS5_6detail17aligned_allocatorIcEEvEElRNS9_IlLi1ESE_vEESG_l
libonemkl.so.0:_ZN6oneapi3mkl6lapack6detail5sytrfENS0_6deviceERN2cl4sycl5queueENS0_4uploElRNS5_6bufferIdLi1ENS5_6detail17aligned_allocatorIcEEvEElRNS9_IlLi1ESC_vEESE_l
libonemkl.so.0:_ZN6oneapi3mkl6lapack6detail5sytrfENS0_6deviceERN2cl4sycl5queueENS0_4uploElRNS5_6bufferIfLi1ENS5_6detail17aligned_allocatorIcEEvEElRNS9_IlLi1ESC_vEESE_l
libonemkl.so.0:_ZN6oneapi3mkl6lapack6detail5trtrsENS0_6deviceERN2cl4sycl5queueENS0_4uploENS0_9transposeENS0_4diagEllPSt7complexIdElSD_lSD_lRKSt6vectorINS5_5eventESaISF_EE
libonemkl.so.0:_ZN6oneapi3mkl6lapack6detail5trtrsENS0_6deviceERN2cl4sycl5queueENS0_4uploENS0_9transposeENS0_4diagEllPSt7complexIfElSD_lSD_lRKSt6vectorINS5_5eventESaISF_EE
libonemkl.so.0:_ZN6oneapi3mkl6lapack6detail5trtrsENS0_6deviceERN2cl4sycl5queueENS0_4uploENS0_9transposeENS0_4diagEllPdlSB_lSB_lRKSt6vectorINS5_5eventESaISD_EE
libonemkl.so.0:_ZN6oneapi3mkl6lapack6detail5trtrsENS0_6deviceERN2cl4sycl5queueENS0_4uploENS0_9transposeENS0_4diagEllPflSB_lSB_lRKSt6vectorINS5_5eventESaISD_EE
libonemkl.so.0:_ZN6oneapi3mkl6lapack6detail5trtrsENS0_6deviceERN2cl4sycl5queueENS0_4uploENS0_9transposeENS0_4diagEllRNS5_6bufferISt7complexIdELi1ENS5_6detail17aligned_allocatorIcEEvEElSI_lSI_l
libonemkl.so.0:_ZN6oneapi3mkl6lapack6detail5trtrsENS0_6deviceERN2cl4sycl5queueENS0_4uploENS0_9transposeENS0_4diagEllRNS5_6bufferISt7complexIfELi1ENS5_6detail17aligned_allocatorIcEEvEElSI_lSI_l
libonemkl.so.0:_ZN6oneapi3mkl6lapack6detail5trtrsENS0_6deviceERN2cl4sycl5queueENS0_4uploENS0_9transposeENS0_4diagEllRNS5_6bufferIdLi1ENS5_6detail17aligned_allocatorIcEEvEElSG_lSG_l
libonemkl.so.0:_ZN6oneapi3mkl6lapack6detail5trtrsENS0_6deviceERN2cl4sycl5queueENS0_4uploENS0_9transposeENS0_4diagEllRNS5_6bufferIfLi1ENS5_6detail17aligned_allocatorIcEEvEElSG_lSG_l
libonemkl.so.0:_ZN6oneapi3mkl6lapack6detail5ungbrENS0_6deviceERN2cl4sycl5queueENS0_8generateElllPSt7complexIdElSB_SB_lRKSt6vectorINS5_5eventESaISD_EE
libonemkl.so.0:_ZN6oneapi3mkl6lapack6detail5ungbrENS0_6deviceERN2cl4sycl5queueENS0_8generateElllPSt7complexIfElSB_SB_lRKSt6vectorINS5_5eventESaISD_EE
libonemkl.so.0:_ZN6oneapi3mkl6lapack6detail5ungbrENS0_6deviceERN2cl4sycl5queueENS0_8generateElllRNS5_6bufferISt7complexIdELi1ENS5_6detail17aligned_allocatorIcEEvEElSG_SG_l
libonemkl.so.0:_ZN6oneapi3mkl6lapack6detail5ungbrENS0_6deviceERN2cl4sycl5queueENS0_8generateElllRNS5_6bufferISt7complexIfELi1ENS5_6detail17aligned_allocatorIcEEvEElSG_SG_l
libonemkl.so.0:_ZN6oneapi3mkl6lapack6detail5ungqrENS0_6deviceERN2cl4sycl5queueElllPSt7complexIdElSA_SA_lRKSt6vectorINS5_5eventESaISC_EE
libonemkl.so.0:_ZN6oneapi3mkl6lapack6detail5ungqrENS0_6deviceERN2cl4sycl5queueElllPSt7complexIfElSA_SA_lRKSt6vectorINS5_5eventESaISC_EE
libonemkl.so.0:_ZN6oneapi3mkl6lapack6detail5ungqrENS0_6deviceERN2cl4sycl5queueElllRNS5_6bufferISt7complexIdELi1ENS5_6detail17aligned_allocatorIcEEvEElSF_SF_l
libonemkl.so.0:_ZN6oneapi3mkl6lapack6detail5ungqrENS0_6deviceERN2cl4sycl5queueElllRNS5_6bufferISt7complexIfELi1ENS5_6detail17aligned_allocatorIcEEvEElSF_SF_l
libonemkl.so.0:_ZN6oneapi3mkl6lapack6detail5ungtrENS0_6deviceERN2cl4sycl5queueENS0_4uploElPSt7complexIdElSB_SB_lRKSt6vectorINS5_5eventESaISD_EE
libonemkl.so.0:_ZN6oneapi3mkl6lapack6detail5ungtrENS0_6deviceERN2cl4sycl5queueENS0_4uploElPSt7complexIfElSB_SB_lRKSt6vectorINS5_5eventESaISD_EE
libonemkl.so.0:_ZN6oneapi3mkl6lapack6detail5ungtrENS0_6deviceERN2cl4sycl5queueENS0_4uploElRNS5_6bufferISt7complexIdELi1ENS5_6detail17aligned_allocatorIcEEvEElSG_SG_l
libonemkl.so.0:_ZN6oneapi3mkl6lapack6detail5ungtrENS0_6deviceERN2cl4sycl5queueENS0_4uploElRNS5_6bufferISt7complexIfELi1ENS5_6detail17aligned_allocatorIcEEvEElSG_SG_l
libonemkl.so.0:_ZN6oneapi3mkl6lapack6detail5unmqrENS0_6deviceERN2cl4sycl5queueENS0_4sideENS0_9transposeElllPSt7complexIdElSC_SC_lSC_lRKSt6vectorINS5_5eventESaISE_EE
libonemkl.so.0:_ZN6oneapi3mkl6lapack6detail5unmqrENS0_6deviceERN2cl4sycl5queueENS0_4sideENS0_9transposeElllPSt7complexIfElSC_SC_lSC_lRKSt6vectorINS5_5eventESaISE_EE
libonemkl.so.0:_ZN6oneapi3mkl6lapack6detail5unmqrENS0_6deviceERN2cl4sycl5queueENS0_4sideENS0_9transposeElllRNS5_6bufferISt7complexIdELi1ENS5_6detail17aligned_allocatorIcEEvEElSH_SH_lSH_l
libonemkl.so.0:_ZN6oneapi3mkl6lapack6detail5unmqrENS0_6deviceERN2cl4sycl5queueENS0_4sideENS0_9transposeElllRNS5_6bufferISt7complexIfELi1ENS5_6detail17aligned_allocatorIcEEvEElSH_SH_lSH_l
libonemkl.so.0:_ZN6oneapi3mkl6lapack6detail5unmrqENS0_6deviceERN2cl4sycl5queueENS0_4sideENS0_9transposeElllPSt7complexIdElSC_SC_lSC_lRKSt6vectorINS5_5eventESaISE_EE
libonemkl.so.0:_ZN6oneapi3mkl6lapack6detail5unmrqENS0_6deviceERN2cl4sycl5queueENS0_4sideENS0_9transposeElllPSt7complexIfElSC_SC_lSC_lRKSt6vectorINS5_5eventESaISE_EE
libonemkl.so.0:_ZN6oneapi3mkl6lapack6detail5unmrqENS0_6deviceERN2cl4sycl5queueENS0_4sideENS0_9transposeElllRNS5_6bufferISt7complexIdELi1ENS5_6detail17aligned_allocatorIcEEvEElSH_SH_lSH_l
libonemkl.so.0:_ZN6oneapi3mkl6lapack6detail5unmrqENS0_6deviceERN2cl4sycl5queueENS0_4sideENS0_9transposeElllRNS5_6bufferISt7complexIfELi1ENS5_6detail17aligned_allocatorIcEEvEElSH_SH_lSH_l
libonemkl.so.0:_ZN6oneapi3mkl6lapack6detail5unmtrENS0_6deviceERN2cl4sycl5queueENS0_4sideENS0_4uploENS0_9transposeEllPSt7complexIdElSD_SD_lSD_lRKSt6vectorINS5_5eventESaISF_EE
libonemkl.so.0:_ZN6oneapi3mkl6lapack6detail5unmtrENS0_6deviceERN2cl4sycl5queueENS0_4sideENS0_4uploENS0_9transposeEllPSt7complexIfElSD_SD_lSD_lRKSt6vectorINS5_5eventESaISF_EE
libonemkl.so.0:_ZN6oneapi3mkl6lapack6detail5unmtrENS0_6deviceERN2cl4sycl5queueENS0_4sideENS0_4uploENS0_9transposeEllRNS5_6bufferISt7complexIdELi1ENS5_6detail17aligned_allocatorIcEEvEElSI_SI_lSI_l
libonemkl.so.0:_ZN6oneapi3mkl6lapack6detail5unmtrENS0_6deviceERN2cl4sycl5queueENS0_4sideENS0_4uploENS0_9transposeEllRNS5_6bufferISt7complexIfELi1ENS5_6detail17aligned_allocatorIcEEvEElSI_SI_lSI_l
libonemkl.so.0:_ZN9__gnu_cxx15__concat_size_tEPcmm
libonemkl.so.0:_ZN9__gnu_cxx15__snprintf_liteEPcmPKcP13__va_list_tag
libonemkl.so.0:_ZN9__gnu_cxx20recursive_init_errorC1Ev
libonemkl.so.0:_ZN9__gnu_cxx20recursive_init_errorC2Ev
libonemkl.so.0:_ZN9__gnu_cxx20recursive_init_errorD0Ev
libonemkl.so.0:_ZN9__gnu_cxx20recursive_init_errorD1Ev
libonemkl.so.0:_ZN9__gnu_cxx20recursive_init_errorD2Ev
libonemkl.so.0:_ZN9__gnu_cxx26__throw_insufficient_spaceEPKcS1_
libonemkl.so.0:_ZN9__gnu_cxx27__verbose_terminate_handlerEv
libonemkl.so.0:_ZN9__gnu_cxx9__freeresEv
libonemkl.so.0:_ZNK10__cxxabiv117__class_type_info10__do_catchEPKSt9type_infoPPvj
libonemkl.so.0:_ZNK10__cxxabiv117__class_type_info11__do_upcastEPKS0_PKvRNS0_15__upcast_resultE
libonemkl.so.0:_ZNK10__cxxabiv117__class_type_info11__do_upcastEPKS0_PPv
libonemkl.so.0:_ZNK10__cxxabiv117__class_type_info12__do_dyncastElNS0_10__sub_kindEPKS0_PKvS3_S5_RNS0_16__dyncast_resultE
libonemkl.so.0:_ZNK10__cxxabiv117__class_type_info20__do_find_public_srcElPKvPKS0_S2_
libonemkl.so.0:_ZNK10__cxxabiv120__si_class_type_info11__do_upcastEPKNS_17__class_type_infoEPKvRNS1_15__upcast_resultE
libonemkl.so.0:_ZNK10__cxxabiv120__si_class_type_info12__do_dyncastElNS_17__class_type_info10__sub_kindEPKS1_PKvS4_S6_RNS1_16__dyncast_resultE
libonemkl.so.0:_ZNK10__cxxabiv120__si_class_type_info20__do_find_public_srcElPKvPKNS_17__class_type_infoES2_
libonemkl.so.0:_ZNK10__cxxabiv121__vmi_class_type_info11__do_upcastEPKNS_17__class_type_infoEPKvRNS1_15__upcast_resultE
libonemkl.so.0:_ZNK10__cxxabiv121__vmi_class_type_info12__do_dyncastElNS_17__class_type_info10__sub_kindEPKS1_PKvS4_S6_RNS1_16__dyncast_resultE
libonemkl.so.0:_ZNK10__cxxabiv121__vmi_class_type_info20__do_find_public_srcElPKvPKNS_17__class_type_infoES2_
libonemkl.so.0:_ZNKSt10bad_typeid4whatEv
libonemkl.so.0:_ZNKSt10error_code23default_error_conditionEv
libonemkl.so.0:_ZNKSt11__timepunctIcE6_M_putEPcmPKcPK2tm
libonemkl.so.0:_ZNKSt11__timepunctIwE6_M_putEPwmPKwPK2tm
libonemkl.so.0:_ZNKSt11logic_error4whatEv
libonemkl.so.0:_ZNKSt12__basic_fileIcE7is_openEv
libonemkl.so.0:_ZNKSt13bad_exception4whatEv
libonemkl.so.0:_ZNKSt13random_device13_M_getentropyEv
libonemkl.so.0:_ZNKSt13runtime_error4whatEv
libonemkl.so.0:_ZNKSt19__codecvt_utf8_baseIDiE10do_unshiftER11__mbstate_tPcS3_RS3_
libonemkl.so.0:_ZNKSt19__codecvt_utf8_baseIDiE11do_encodingEv
libonemkl.so.0:_ZNKSt19__codecvt_utf8_baseIDiE13do_max_lengthEv
libonemkl.so.0:_ZNKSt19__codecvt_utf8_baseIDiE16do_always_noconvEv
libonemkl.so.0:_ZNKSt19__codecvt_utf8_baseIDiE5do_inER11__mbstate_tPKcS4_RS4_PDiS6_RS6_
libonemkl.so.0:_ZNKSt19__codecvt_utf8_baseIDiE6do_outER11__mbstate_tPKDiS4_RS4_PcS6_RS6_
libonemkl.so.0:_ZNKSt19__codecvt_utf8_baseIDiE9do_lengthER11__mbstate_tPKcS4_m
libonemkl.so.0:_ZNKSt19__codecvt_utf8_baseIDsE10do_unshiftER11__mbstate_tPcS3_RS3_
libonemkl.so.0:_ZNKSt19__codecvt_utf8_baseIDsE11do_encodingEv
libonemkl.so.0:_ZNKSt19__codecvt_utf8_baseIDsE13do_max_lengthEv
libonemkl.so.0:_ZNKSt19__codecvt_utf8_baseIDsE16do_always_noconvEv
libonemkl.so.0:_ZNKSt19__codecvt_utf8_baseIDsE5do_inER11__mbstate_tPKcS4_RS4_PDsS6_RS6_
libonemkl.so.0:_ZNKSt19__codecvt_utf8_baseIDsE6do_outER11__mbstate_tPKDsS4_RS4_PcS6_RS6_
libonemkl.so.0:_ZNKSt19__codecvt_utf8_baseIDsE9do_lengthER11__mbstate_tPKcS4_m
libonemkl.so.0:_ZNKSt19__codecvt_utf8_baseIwE10do_unshiftER11__mbstate_tPcS3_RS3_
libonemkl.so.0:_ZNKSt19__codecvt_utf8_baseIwE11do_encodingEv
libonemkl.so.0:_ZNKSt19__codecvt_utf8_baseIwE13do_max_lengthEv
libonemkl.so.0:_ZNKSt19__codecvt_utf8_baseIwE16do_always_noconvEv
libonemkl.so.0:_ZNKSt19__codecvt_utf8_baseIwE5do_inER11__mbstate_tPKcS4_RS4_PwS6_RS6_
libonemkl.so.0:_ZNKSt19__codecvt_utf8_baseIwE6do_outER11__mbstate_tPKwS4_RS4_PcS6_RS6_
libonemkl.so.0:_ZNKSt19__codecvt_utf8_baseIwE9do_lengthER11__mbstate_tPKcS4_m
libonemkl.so.0:_ZNKSt19__iosfail_type_info11__do_upcastEPKN10__cxxabiv117__class_type_infoEPPv
libonemkl.so.0:_ZNKSt20__codecvt_utf16_baseIDiE10do_unshiftER11__mbstate_tPcS3_RS3_
libonemkl.so.0:_ZNKSt20__codecvt_utf16_baseIDiE11do_encodingEv
libonemkl.so.0:_ZNKSt20__codecvt_utf16_baseIDiE13do_max_lengthEv
libonemkl.so.0:_ZNKSt20__codecvt_utf16_baseIDiE16do_always_noconvEv
libonemkl.so.0:_ZNKSt20__codecvt_utf16_baseIDiE5do_inER11__mbstate_tPKcS4_RS4_PDiS6_RS6_
libonemkl.so.0:_ZNKSt20__codecvt_utf16_baseIDiE6do_outER11__mbstate_tPKDiS4_RS4_PcS6_RS6_
libonemkl.so.0:_ZNKSt20__codecvt_utf16_baseIDiE9do_lengthER11__mbstate_tPKcS4_m
libonemkl.so.0:_ZNKSt20__codecvt_utf16_baseIDsE10do_unshiftER11__mbstate_tPcS3_RS3_
libonemkl.so.0:_ZNKSt20__codecvt_utf16_baseIDsE11do_encodingEv
libonemkl.so.0:_ZNKSt20__codecvt_utf16_baseIDsE13do_max_lengthEv
libonemkl.so.0:_ZNKSt20__codecvt_utf16_baseIDsE16do_always_noconvEv
libonemkl.so.0:_ZNKSt20__codecvt_utf16_baseIDsE5do_inER11__mbstate_tPKcS4_RS4_PDsS6_RS6_
libonemkl.so.0:_ZNKSt20__codecvt_utf16_baseIDsE6do_outER11__mbstate_tPKDsS4_RS4_PcS6_RS6_
libonemkl.so.0:_ZNKSt20__codecvt_utf16_baseIDsE9do_lengthER11__mbstate_tPKcS4_m
libonemkl.so.0:_ZNKSt20__codecvt_utf16_baseIwE10do_unshiftER11__mbstate_tPcS3_RS3_
libonemkl.so.0:_ZNKSt20__codecvt_utf16_baseIwE11do_encodingEv
libonemkl.so.0:_ZNKSt20__codecvt_utf16_baseIwE13do_max_lengthEv
libonemkl.so.0:_ZNKSt20__codecvt_utf16_baseIwE16do_always_noconvEv
libonemkl.so.0:_ZNKSt20__codecvt_utf16_baseIwE5do_inER11__mbstate_tPKcS4_RS4_PwS6_RS6_
libonemkl.so.0:_ZNKSt20__codecvt_utf16_baseIwE6do_outER11__mbstate_tPKwS4_RS4_PcS6_RS6_
libonemkl.so.0:_ZNKSt20__codecvt_utf16_baseIwE9do_lengthER11__mbstate_tPKcS4_m
libonemkl.so.0:_ZNKSt20bad_array_new_length4whatEv
libonemkl.so.0:_ZNKSt25__codecvt_utf8_utf16_baseIDiE10do_unshiftER11__mbstate_tPcS3_RS3_
libonemkl.so.0:_ZNKSt25__codecvt_utf8_utf16_baseIDiE11do_encodingEv
libonemkl.so.0:_ZNKSt25__codecvt_utf8_utf16_baseIDiE13do_max_lengthEv
libonemkl.so.0:_ZNKSt25__codecvt_utf8_utf16_baseIDiE16do_always_noconvEv
libonemkl.so.0:_ZNKSt25__codecvt_utf8_utf16_baseIDiE5do_inER11__mbstate_tPKcS4_RS4_PDiS6_RS6_
libonemkl.so.0:_ZNKSt25__codecvt_utf8_utf16_baseIDiE6do_outER11__mbstate_tPKDiS4_RS4_PcS6_RS6_
libonemkl.so.0:_ZNKSt25__codecvt_utf8_utf16_baseIDiE9do_lengthER11__mbstate_tPKcS4_m
libonemkl.so.0:_ZNKSt25__codecvt_utf8_utf16_baseIDsE10do_unshiftER11__mbstate_tPcS3_RS3_
libonemkl.so.0:_ZNKSt25__codecvt_utf8_utf16_baseIDsE11do_encodingEv
libonemkl.so.0:_ZNKSt25__codecvt_utf8_utf16_baseIDsE13do_max_lengthEv
libonemkl.so.0:_ZNKSt25__codecvt_utf8_utf16_baseIDsE16do_always_noconvEv
libonemkl.so.0:_ZNKSt25__codecvt_utf8_utf16_baseIDsE5do_inER11__mbstate_tPKcS4_RS4_PDsS6_RS6_
libonemkl.so.0:_ZNKSt25__codecvt_utf8_utf16_baseIDsE6do_outER11__mbstate_tPKDsS4_RS4_PcS6_RS6_
libonemkl.so.0:_ZNKSt25__codecvt_utf8_utf16_baseIDsE9do_lengthER11__mbstate_tPKcS4_m
libonemkl.so.0:_ZNKSt25__codecvt_utf8_utf16_baseIwE10do_unshiftER11__mbstate_tPcS3_RS3_
libonemkl.so.0:_ZNKSt25__codecvt_utf8_utf16_baseIwE11do_encodingEv
libonemkl.so.0:_ZNKSt25__codecvt_utf8_utf16_baseIwE13do_max_lengthEv
libonemkl.so.0:_ZNKSt25__codecvt_utf8_utf16_baseIwE16do_always_noconvEv
libonemkl.so.0:_ZNKSt25__codecvt_utf8_utf16_baseIwE5do_inER11__mbstate_tPKcS4_RS4_PwS6_RS6_
libonemkl.so.0:_ZNKSt25__codecvt_utf8_utf16_baseIwE6do_outER11__mbstate_tPKwS4_RS4_PcS6_RS6_
libonemkl.so.0:_ZNKSt25__codecvt_utf8_utf16_baseIwE9do_lengthER11__mbstate_tPKcS4_m
libonemkl.so.0:_ZNKSt3_V214error_category10_M_messageB5cxx11Ei
libonemkl.so.0:_ZNKSt3_V214error_category10_M_messageEi
libonemkl.so.0:_ZNKSt3_V214error_category10equivalentERKSt10error_codei
libonemkl.so.0:_ZNKSt3_V214error_category10equivalentEiRKSt15error_condition
libonemkl.so.0:_ZNKSt3_V214error_category23default_error_conditionEi
libonemkl.so.0:_ZNKSt5ctypeIcE10do_tolowerEPcPKc
libonemkl.so.0:_ZNKSt5ctypeIcE10do_tolowerEc
libonemkl.so.0:_ZNKSt5ctypeIcE10do_toupperEPcPKc
libonemkl.so.0:_ZNKSt5ctypeIcE10do_toupperEc
libonemkl.so.0:_ZNKSt5ctypeIcE13_M_widen_initEv
libonemkl.so.0:_ZNKSt5ctypeIcE14_M_narrow_initEv
libonemkl.so.0:_ZNKSt5ctypeIwE10do_scan_isEtPKwS2_
libonemkl.so.0:_ZNKSt5ctypeIwE10do_tolowerEPwPKw
libonemkl.so.0:_ZNKSt5ctypeIwE10do_tolowerEw
libonemkl.so.0:_ZNKSt5ctypeIwE10do_toupperEPwPKw
libonemkl.so.0:_ZNKSt5ctypeIwE10do_toupperEw
libonemkl.so.0:_ZNKSt5ctypeIwE11do_scan_notEtPKwS2_
libonemkl.so.0:_ZNKSt5ctypeIwE19_M_convert_to_wmaskEt
libonemkl.so.0:_ZNKSt5ctypeIwE5do_isEPKwS2_Pt
libonemkl.so.0:_ZNKSt5ctypeIwE5do_isEtw
libonemkl.so.0:_ZNKSt5ctypeIwE8do_widenEPKcS2_Pw
libonemkl.so.0:_ZNKSt5ctypeIwE8do_widenEc
libonemkl.so.0:_ZNKSt5ctypeIwE9do_narrowEPKwS2_cPc
libonemkl.so.0:_ZNKSt5ctypeIwE9do_narrowEwc
libonemkl.so.0:_ZNKSt6locale2id5_M_idEv
libonemkl.so.0:_ZNKSt6locale4nameB5cxx11Ev
libonemkl.so.0:_ZNKSt6locale4nameEv
libonemkl.so.0:_ZNKSt6locale5facet11_M_cow_shimEPKNS_2idE
libonemkl.so.0:_ZNKSt6locale5facet11_M_sso_shimEPKNS_2idE
libonemkl.so.0:_ZNKSt6localeeqERKS_
libonemkl.so.0:_ZNKSt7__cxx117collateIcE10_M_compareEPKcS3_
libonemkl.so.0:_ZNKSt7__cxx117collateIcE12_M_transformEPcPKcm
libonemkl.so.0:_ZNKSt7__cxx117collateIwE10_M_compareEPKwS3_
libonemkl.so.0:_ZNKSt7__cxx117collateIwE12_M_transformEPwPKwm
libonemkl.so.0:_ZNKSt7__cxx118messagesIcE6do_getEiiiRKNS_12basic_stringIcSt11char_traitsIcESaIcEEE
libonemkl.so.0:_ZNKSt7__cxx118messagesIcE7do_openERKNS_12basic_stringIcSt11char_traitsIcESaIcEEERKSt6locale
libonemkl.so.0:_ZNKSt7__cxx118messagesIcE8do_closeEi
libonemkl.so.0:_ZNKSt7__cxx118messagesIwE6do_getEiiiRKNS_12basic_stringIwSt11char_traitsIwESaIwEEE
libonemkl.so.0:_ZNKSt7__cxx118messagesIwE7do_openERKNS_12basic_stringIcSt11char_traitsIcESaIcEEERKSt6locale
libonemkl.so.0:_ZNKSt7__cxx118messagesIwE8do_closeEi
libonemkl.so.0:_ZNKSt7codecvtIDiDu11__mbstate_tE10do_unshiftERS0_PDuS3_RS3_
libonemkl.so.0:_ZNKSt7codecvtIDiDu11__mbstate_tE11do_encodingEv
libonemkl.so.0:_ZNKSt7codecvtIDiDu11__mbstate_tE13do_max_lengthEv
libonemkl.so.0:_ZNKSt7codecvtIDiDu11__mbstate_tE16do_always_noconvEv
libonemkl.so.0:_ZNKSt7codecvtIDiDu11__mbstate_tE5do_inERS0_PKDuS4_RS4_PDiS6_RS6_
libonemkl.so.0:_ZNKSt7codecvtIDiDu11__mbstate_tE6do_outERS0_PKDiS4_RS4_PDuS6_RS6_
libonemkl.so.0:_ZNKSt7codecvtIDiDu11__mbstate_tE9do_lengthERS0_PKDuS4_m
libonemkl.so.0:_ZNKSt7codecvtIDic11__mbstate_tE10do_unshiftERS0_PcS3_RS3_
libonemkl.so.0:_ZNKSt7codecvtIDic11__mbstate_tE11do_encodingEv
libonemkl.so.0:_ZNKSt7codecvtIDic11__mbstate_tE13do_max_lengthEv
libonemkl.so.0:_ZNKSt7codecvtIDic11__mbstate_tE16do_always_noconvEv
libonemkl.so.0:_ZNKSt7codecvtIDic11__mbstate_tE5do_inERS0_PKcS4_RS4_PDiS6_RS6_
libonemkl.so.0:_ZNKSt7codecvtIDic11__mbstate_tE6do_outERS0_PKDiS4_RS4_PcS6_RS6_
libonemkl.so.0:_ZNKSt7codecvtIDic11__mbstate_tE9do_lengthERS0_PKcS4_m
libonemkl.so.0:_ZNKSt7codecvtIDsDu11__mbstate_tE10do_unshiftERS0_PDuS3_RS3_
libonemkl.so.0:_ZNKSt7codecvtIDsDu11__mbstate_tE11do_encodingEv
libonemkl.so.0:_ZNKSt7codecvtIDsDu11__mbstate_tE13do_max_lengthEv
libonemkl.so.0:_ZNKSt7codecvtIDsDu11__mbstate_tE16do_always_noconvEv
libonemkl.so.0:_ZNKSt7codecvtIDsDu11__mbstate_tE5do_inERS0_PKDuS4_RS4_PDsS6_RS6_
libonemkl.so.0:_ZNKSt7codecvtIDsDu11__mbstate_tE6do_outERS0_PKDsS4_RS4_PDuS6_RS6_
libonemkl.so.0:_ZNKSt7codecvtIDsDu11__mbstate_tE9do_lengthERS0_PKDuS4_m
libonemkl.so.0:_ZNKSt7codecvtIDsc11__mbstate_tE10do_unshiftERS0_PcS3_RS3_
libonemkl.so.0:_ZNKSt7codecvtIDsc11__mbstate_tE11do_encodingEv
libonemkl.so.0:_ZNKSt7codecvtIDsc11__mbstate_tE13do_max_lengthEv
libonemkl.so.0:_ZNKSt7codecvtIDsc11__mbstate_tE16do_always_noconvEv
libonemkl.so.0:_ZNKSt7codecvtIDsc11__mbstate_tE5do_inERS0_PKcS4_RS4_PDsS6_RS6_
libonemkl.so.0:_ZNKSt7codecvtIDsc11__mbstate_tE6do_outERS0_PKDsS4_RS4_PcS6_RS6_
libonemkl.so.0:_ZNKSt7codecvtIDsc11__mbstate_tE9do_lengthERS0_PKcS4_m
libonemkl.so.0:_ZNKSt7codecvtIcc11__mbstate_tE10do_unshiftERS0_PcS3_RS3_
libonemkl.so.0:_ZNKSt7codecvtIcc11__mbstate_tE11do_encodingEv
libonemkl.so.0:_ZNKSt7codecvtIcc11__mbstate_tE13do_max_lengthEv
libonemkl.so.0:_ZNKSt7codecvtIcc11__mbstate_tE16do_always_noconvEv
libonemkl.so.0:_ZNKSt7codecvtIcc11__mbstate_tE5do_inERS0_PKcS4_RS4_PcS6_RS6_
libonemkl.so.0:_ZNKSt7codecvtIcc11__mbstate_tE6do_outERS0_PKcS4_RS4_PcS6_RS6_
libonemkl.so.0:_ZNKSt7codecvtIcc11__mbstate_tE9do_lengthERS0_PKcS4_m
libonemkl.so.0:_ZNKSt7codecvtIwc11__mbstate_tE10do_unshiftERS0_PcS3_RS3_
libonemkl.so.0:_ZNKSt7codecvtIwc11__mbstate_tE11do_encodingEv
libonemkl.so.0:_ZNKSt7codecvtIwc11__mbstate_tE13do_max_lengthEv
libonemkl.so.0:_ZNKSt7codecvtIwc11__mbstate_tE16do_always_noconvEv
libonemkl.so.0:_ZNKSt7codecvtIwc11__mbstate_tE5do_inERS0_PKcS4_RS4_PwS6_RS6_
libonemkl.so.0:_ZNKSt7codecvtIwc11__mbstate_tE6do_outERS0_PKwS4_RS4_PcS6_RS6_
libonemkl.so.0:_ZNKSt7codecvtIwc11__mbstate_tE9do_lengthERS0_PKcS4_m
libonemkl.so.0:_ZNKSt7collateIcE10_M_compareEPKcS2_
libonemkl.so.0:_ZNKSt7collateIcE12_M_transformEPcPKcm
libonemkl.so.0:_ZNKSt7collateIwE10_M_compareEPKwS2_
libonemkl.so.0:_ZNKSt7collateIwE12_M_transformEPwPKwm
libonemkl.so.0:_ZNKSt8Catalogs6_M_getEi
libonemkl.so.0:_ZNKSt8bad_cast4whatEv
libonemkl.so.0:_ZNKSt8ios_base7failure4whatEv
libonemkl.so.0:_ZNKSt8ios_base7failureB5cxx114whatEv
libonemkl.so.0:_ZNKSt8messagesIcE6do_getEiiiRKSs
libonemkl.so.0:_ZNKSt8messagesIcE7do_openERKSsRKSt6locale
libonemkl.so.0:_ZNKSt8messagesIcE8do_closeEi
libonemkl.so.0:_ZNKSt8messagesIwE6do_getEiiiRKSbIwSt11char_traitsIwESaIwEE
libonemkl.so.0:_ZNKSt8messagesIwE7do_openERKSsRKSt6locale
libonemkl.so.0:_ZNKSt8messagesIwE8do_closeEi
libonemkl.so.0:_ZNKSt9bad_alloc4whatEv
libonemkl.so.0:_ZNKSt9exception4whatEv
libonemkl.so.0:_ZNKSt9type_info10__do_catchEPKS_PPvj
libonemkl.so.0:_ZNKSt9type_info11__do_upcastEPKN10__cxxabiv117__class_type_infoEPPv
libonemkl.so.0:_ZNKSt9type_info14__is_pointer_pEv
libonemkl.so.0:_ZNKSt9type_info15__is_function_pEv
libonemkl.so.0:_ZNSi6ignoreEl
libonemkl.so.0:_ZNSi6ignoreEli
libonemkl.so.0:_ZNSi7getlineEPclc
libonemkl.so.0:_ZNSt10__num_base15_S_format_floatERKSt8ios_basePcc
libonemkl.so.0:_ZNSt10bad_typeidD0Ev
libonemkl.so.0:_ZNSt10bad_typeidD1Ev
libonemkl.so.0:_ZNSt10bad_typeidD2Ev
libonemkl.so.0:_ZNSt10money_base20_S_construct_patternEccc
libonemkl.so.0:_ZNSt10moneypunctIcLb0EE24_M_initialize_moneypunctEP15__locale_structPKc
libonemkl.so.0:_ZNSt10moneypunctIcLb0EED0Ev
libonemkl.so.0:_ZNSt10moneypunctIcLb0EED1Ev
libonemkl.so.0:_ZNSt10moneypunctIcLb0EED2Ev
libonemkl.so.0:_ZNSt10moneypunctIcLb1EE24_M_initialize_moneypunctEP15__locale_structPKc
libonemkl.so.0:_ZNSt10moneypunctIcLb1EED0Ev
libonemkl.so.0:_ZNSt10moneypunctIcLb1EED1Ev
libonemkl.so.0:_ZNSt10moneypunctIcLb1EED2Ev
libonemkl.so.0:_ZNSt10moneypunctIwLb0EE24_M_initialize_moneypunctEP15__locale_structPKc
libonemkl.so.0:_ZNSt10moneypunctIwLb0EED0Ev
libonemkl.so.0:_ZNSt10moneypunctIwLb0EED1Ev
libonemkl.so.0:_ZNSt10moneypunctIwLb0EED2Ev
libonemkl.so.0:_ZNSt10moneypunctIwLb1EE24_M_initialize_moneypunctEP15__locale_structPKc
libonemkl.so.0:_ZNSt10moneypunctIwLb1EED0Ev
libonemkl.so.0:_ZNSt10moneypunctIwLb1EED1Ev
libonemkl.so.0:_ZNSt10moneypunctIwLb1EED2Ev
libonemkl.so.0:_ZNSt11__timepunctIcE23_M_initialize_timepunctEP15__locale_struct
libonemkl.so.0:_ZNSt11__timepunctIwE23_M_initialize_timepunctEP15__locale_struct
libonemkl.so.0:_ZNSt11logic_errorC1EOS_
libonemkl.so.0:_ZNSt11logic_errorC1EPKc
libonemkl.so.0:_ZNSt11logic_errorC1ERKNSt7__cxx1112basic_stringIcSt11char_traitsIcESaIcEEE
libonemkl.so.0:_ZNSt11logic_errorC1ERKS_
libonemkl.so.0:_ZNSt11logic_errorC1ERKSs
libonemkl.so.0:_ZNSt11logic_errorC2EOS_
libonemkl.so.0:_ZNSt11logic_errorC2EPKc
libonemkl.so.0:_ZNSt11logic_errorC2ERKNSt7__cxx1112basic_stringIcSt11char_traitsIcESaIcEEE
libonemkl.so.0:_ZNSt11logic_errorC2ERKS_
libonemkl.so.0:_ZNSt11logic_errorC2ERKSs
libonemkl.so.0:_ZNSt11logic_errorD0Ev
libonemkl.so.0:_ZNSt11logic_errorD1Ev
libonemkl.so.0:_ZNSt11logic_errorD2Ev
libonemkl.so.0:_ZNSt11logic_erroraSEOS_
libonemkl.so.0:_ZNSt11logic_erroraSERKS_
libonemkl.so.0:_ZNSt11range_errorC1EPKc
libonemkl.so.0:_ZNSt11range_errorC1ERKNSt7__cxx1112basic_stringIcSt11char_traitsIcESaIcEEE
libonemkl.so.0:_ZNSt11range_errorC1ERKSs
libonemkl.so.0:_ZNSt11range_errorC2EPKc
libonemkl.so.0:_ZNSt11range_errorC2ERKNSt7__cxx1112basic_stringIcSt11char_traitsIcESaIcEEE
libonemkl.so.0:_ZNSt11range_errorC2ERKSs
libonemkl.so.0:_ZNSt11range_errorD0Ev
libonemkl.so.0:_ZNSt11range_errorD1Ev
libonemkl.so.0:_ZNSt11range_errorD2Ev
libonemkl.so.0:_ZNSt12__basic_fileIcE2fdEv
libonemkl.so.0:_ZNSt12__basic_fileIcE4fileEv
libonemkl.so.0:_ZNSt12__basic_fileIcE4openEPKcSt13_Ios_Openmodei
libonemkl.so.0:_ZNSt12__basic_fileIcE4syncEv
libonemkl.so.0:_ZNSt12__basic_fileIcE5closeEv
libonemkl.so.0:_ZNSt12__basic_fileIcE6xsgetnEPcl
libonemkl.so.0:_ZNSt12__basic_fileIcE6xsputnEPKcl
libonemkl.so.0:_ZNSt12__basic_fileIcE7seekoffElSt12_Ios_Seekdir
libonemkl.so.0:_ZNSt12__basic_fileIcE8sys_openEP8_IO_FILESt13_Ios_Openmode
libonemkl.so.0:_ZNSt12__basic_fileIcE8sys_openEiSt13_Ios_Openmode
libonemkl.so.0:_ZNSt12__basic_fileIcE8xsputn_2EPKclS2_l
libonemkl.so.0:_ZNSt12__basic_fileIcE9showmanycEv
libonemkl.so.0:_ZNSt12__basic_fileIcEC1EP15pthread_mutex_t
libonemkl.so.0:_ZNSt12__basic_fileIcEC2EP15pthread_mutex_t
libonemkl.so.0:_ZNSt12__basic_fileIcED1Ev
libonemkl.so.0:_ZNSt12__basic_fileIcED2Ev
libonemkl.so.0:_ZNSt12__cow_stringC1EOS_
libonemkl.so.0:_ZNSt12__cow_stringC1EPKcm
libonemkl.so.0:_ZNSt12__cow_stringC1ERKNSt7__cxx1112basic_stringIcSt11char_traitsIcESaIcEEE
libonemkl.so.0:_ZNSt12__cow_stringC1ERKS_
libonemkl.so.0:_ZNSt12__cow_stringC1ERKSs
libonemkl.so.0:_ZNSt12__cow_stringC1Ev
libonemkl.so.0:_ZNSt12__cow_stringC2EOS_
libonemkl.so.0:_ZNSt12__cow_stringC2EPKcm
libonemkl.so.0:_ZNSt12__cow_stringC2ERKNSt7__cxx1112basic_stringIcSt11char_traitsIcESaIcEEE
libonemkl.so.0:_ZNSt12__cow_stringC2ERKS_
libonemkl.so.0:_ZNSt12__cow_stringC2ERKSs
libonemkl.so.0:_ZNSt12__cow_stringC2Ev
libonemkl.so.0:_ZNSt12__cow_stringD1Ev
libonemkl.so.0:_ZNSt12__cow_stringD2Ev
libonemkl.so.0:_ZNSt12__cow_stringaSEOS_
libonemkl.so.0:_ZNSt12__cow_stringaSERKS_
libonemkl.so.0:_ZNSt12__sso_stringC1EOS_
libonemkl.so.0:_ZNSt12__sso_stringC1EPKcm
libonemkl.so.0:_ZNSt12__sso_stringC1ERKNSt7__cxx1112basic_stringIcSt11char_traitsIcESaIcEEE
libonemkl.so.0:_ZNSt12__sso_stringC1ERKS_
libonemkl.so.0:_ZNSt12__sso_stringC1ERKSs
libonemkl.so.0:_ZNSt12__sso_stringC1Ev
libonemkl.so.0:_ZNSt12__sso_stringC2EOS_
libonemkl.so.0:_ZNSt12__sso_stringC2EPKcm
libonemkl.so.0:_ZNSt12__sso_stringC2ERKNSt7__cxx1112basic_stringIcSt11char_traitsIcESaIcEEE
libonemkl.so.0:_ZNSt12__sso_stringC2ERKS_
libonemkl.so.0:_ZNSt12__sso_stringC2ERKSs
libonemkl.so.0:_ZNSt12__sso_stringC2Ev
libonemkl.so.0:_ZNSt12__sso_stringD1Ev
libonemkl.so.0:_ZNSt12__sso_stringD2Ev
libonemkl.so.0:_ZNSt12__sso_stringaSEOS_
libonemkl.so.0:_ZNSt12__sso_stringaSERKS_
libonemkl.so.0:_ZNSt12ctype_bynameIcEC1EPKcm
libonemkl.so.0:_ZNSt12ctype_bynameIcEC1ERKNSt7__cxx1112basic_stringIcSt11char_traitsIcESaIcEEEm
libonemkl.so.0:_ZNSt12ctype_bynameIcEC1ERKSsm
libonemkl.so.0:_ZNSt12ctype_bynameIcEC2EPKcm
libonemkl.so.0:_ZNSt12ctype_bynameIcEC2ERKNSt7__cxx1112basic_stringIcSt11char_traitsIcESaIcEEEm
libonemkl.so.0:_ZNSt12ctype_bynameIcEC2ERKSsm
libonemkl.so.0:_ZNSt12ctype_bynameIcED0Ev
libonemkl.so.0:_ZNSt12ctype_bynameIcED1Ev
libonemkl.so.0:_ZNSt12ctype_bynameIcED2Ev
libonemkl.so.0:_ZNSt12ctype_bynameIwEC1EPKcm
libonemkl.so.0:_ZNSt12ctype_bynameIwEC1ERKNSt7__cxx1112basic_stringIcSt11char_traitsIcESaIcEEEm
libonemkl.so.0:_ZNSt12ctype_bynameIwEC1ERKSsm
libonemkl.so.0:_ZNSt12ctype_bynameIwEC2EPKcm
libonemkl.so.0:_ZNSt12ctype_bynameIwEC2ERKNSt7__cxx1112basic_stringIcSt11char_traitsIcESaIcEEEm
libonemkl.so.0:_ZNSt12ctype_bynameIwEC2ERKSsm
libonemkl.so.0:_ZNSt12ctype_bynameIwED0Ev
libonemkl.so.0:_ZNSt12ctype_bynameIwED1Ev
libonemkl.so.0:_ZNSt12ctype_bynameIwED2Ev
libonemkl.so.0:_ZNSt12domain_errorC1EPKc
libonemkl.so.0:_ZNSt12domain_errorC1ERKNSt7__cxx1112basic_stringIcSt11char_traitsIcESaIcEEE
libonemkl.so.0:_ZNSt12domain_errorC1ERKSs
libonemkl.so.0:_ZNSt12domain_errorC2EPKc
libonemkl.so.0:_ZNSt12domain_errorC2ERKNSt7__cxx1112basic_stringIcSt11char_traitsIcESaIcEEE
libonemkl.so.0:_ZNSt12domain_errorC2ERKSs
libonemkl.so.0:_ZNSt12domain_errorD0Ev
libonemkl.so.0:_ZNSt12domain_errorD1Ev
libonemkl.so.0:_ZNSt12domain_errorD2Ev
libonemkl.so.0:_ZNSt12length_errorC1EPKc
libonemkl.so.0:_ZNSt12length_errorC1ERKNSt7__cxx1112basic_stringIcSt11char_traitsIcESaIcEEE
libonemkl.so.0:_ZNSt12length_errorC1ERKSs
libonemkl.so.0:_ZNSt12length_errorC2EPKc
libonemkl.so.0:_ZNSt12length_errorC2ERKNSt7__cxx1112basic_stringIcSt11char_traitsIcESaIcEEE
libonemkl.so.0:_ZNSt12length_errorC2ERKSs
libonemkl.so.0:_ZNSt12length_errorD0Ev
libonemkl.so.0:_ZNSt12length_errorD1Ev
libonemkl.so.0:_ZNSt12length_errorD2Ev
libonemkl.so.0:_ZNSt12out_of_rangeC1EPKc
libonemkl.so.0:_ZNSt12out_of_rangeC1ERKNSt7__cxx1112basic_stringIcSt11char_traitsIcESaIcEEE
libonemkl.so.0:_ZNSt12out_of_rangeC1ERKSs
libonemkl.so.0:_ZNSt12out_of_rangeC2EPKc
libonemkl.so.0:_ZNSt12out_of_rangeC2ERKNSt7__cxx1112basic_stringIcSt11char_traitsIcESaIcEEE
libonemkl.so.0:_ZNSt12out_of_rangeC2ERKSs
libonemkl.so.0:_ZNSt12out_of_rangeD0Ev
libonemkl.so.0:_ZNSt12out_of_rangeD1Ev
libonemkl.so.0:_ZNSt12out_of_rangeD2Ev
libonemkl.so.0:_ZNSt12system_errorD0Ev
libonemkl.so.0:_ZNSt12system_errorD1Ev
libonemkl.so.0:_ZNSt12system_errorD2Ev
libonemkl.so.0:_ZNSt13bad_exceptionD0Ev
libonemkl.so.0:_ZNSt13bad_exceptionD1Ev
libonemkl.so.0:_ZNSt13bad_exceptionD2Ev
libonemkl.so.0:_ZNSt13basic_istreamIwSt11char_traitsIwEE6ignoreEl
libonemkl.so.0:_ZNSt13basic_istreamIwSt11char_traitsIwEE6ignoreElj
libonemkl.so.0:_ZNSt13basic_istreamIwSt11char_traitsIwEE7getlineEPwlw
libonemkl.so.0:_ZNSt13random_device14_M_init_pretr1ERKNSt7__cxx1112basic_stringIcSt11char_traitsIcESaIcEEE
libonemkl.so.0:_ZNSt13random_device14_M_init_pretr1ERKSs
libonemkl.so.0:_ZNSt13random_device16_M_getval_pretr1Ev
libonemkl.so.0:_ZNSt13random_device7_M_finiEv
libonemkl.so.0:_ZNSt13random_device7_M_initEPKcm
libonemkl.so.0:_ZNSt13random_device7_M_initERKNSt7__cxx1112basic_stringIcSt11char_traitsIcESaIcEEE
libonemkl.so.0:_ZNSt13random_device7_M_initERKSs
libonemkl.so.0:_ZNSt13random_device9_M_getvalEv
libonemkl.so.0:_ZNSt13runtime_errorC1EOS_
libonemkl.so.0:_ZNSt13runtime_errorC1EPKc
libonemkl.so.0:_ZNSt13runtime_errorC1ERKNSt7__cxx1112basic_stringIcSt11char_traitsIcESaIcEEE
libonemkl.so.0:_ZNSt13runtime_errorC1ERKS_
libonemkl.so.0:_ZNSt13runtime_errorC1ERKSs
libonemkl.so.0:_ZNSt13runtime_errorC2EOS_
libonemkl.so.0:_ZNSt13runtime_errorC2EPKc
libonemkl.so.0:_ZNSt13runtime_errorC2ERKNSt7__cxx1112basic_stringIcSt11char_traitsIcESaIcEEE
libonemkl.so.0:_ZNSt13runtime_errorC2ERKS_
libonemkl.so.0:_ZNSt13runtime_errorC2ERKSs
libonemkl.so.0:_ZNSt13runtime_errorD0Ev
libonemkl.so.0:_ZNSt13runtime_errorD1Ev
libonemkl.so.0:_ZNSt13runtime_errorD2Ev
libonemkl.so.0:_ZNSt13runtime_erroraSEOS_
libonemkl.so.0:_ZNSt13runtime_erroraSERKS_
libonemkl.so.0:_ZNSt14overflow_errorC1EPKc
libonemkl.so.0:_ZNSt14overflow_errorC1ERKNSt7__cxx1112basic_stringIcSt11char_traitsIcESaIcEEE
libonemkl.so.0:_ZNSt14overflow_errorC1ERKSs
libonemkl.so.0:_ZNSt14overflow_errorC2EPKc
libonemkl.so.0:_ZNSt14overflow_errorC2ERKNSt7__cxx1112basic_stringIcSt11char_traitsIcESaIcEEE
libonemkl.so.0:_ZNSt14overflow_errorC2ERKSs
libonemkl.so.0:_ZNSt14overflow_errorD0Ev
libonemkl.so.0:_ZNSt14overflow_errorD1Ev
libonemkl.so.0:_ZNSt14overflow_errorD2Ev
libonemkl.so.0:_ZNSt15underflow_errorC1EPKc
libonemkl.so.0:_ZNSt15underflow_errorC1ERKNSt7__cxx1112basic_stringIcSt11char_traitsIcESaIcEEE
libonemkl.so.0:_ZNSt15underflow_errorC1ERKSs
libonemkl.so.0:_ZNSt15underflow_errorC2EPKc
libonemkl.so.0:_ZNSt15underflow_errorC2ERKNSt7__cxx1112basic_stringIcSt11char_traitsIcESaIcEEE
libonemkl.so.0:_ZNSt15underflow_errorC2ERKSs
libonemkl.so.0:_ZNSt15underflow_errorD0Ev
libonemkl.so.0:_ZNSt15underflow_errorD1Ev
libonemkl.so.0:_ZNSt15underflow_errorD2Ev
libonemkl.so.0:_ZNSt16invalid_argumentC1EPKc
libonemkl.so.0:_ZNSt16invalid_argumentC1ERKNSt7__cxx1112basic_stringIcSt11char_traitsIcESaIcEEE
libonemkl.so.0:_ZNSt16invalid_argumentC1ERKSs
libonemkl.so.0:_ZNSt16invalid_argumentC2EPKc
libonemkl.so.0:_ZNSt16invalid_argumentC2ERKNSt7__cxx1112basic_stringIcSt11char_traitsIcESaIcEEE
libonemkl.so.0:_ZNSt16invalid_argumentC2ERKSs
libonemkl.so.0:_ZNSt16invalid_argumentD0Ev
libonemkl.so.0:_ZNSt16invalid_argumentD1Ev
libonemkl.so.0:_ZNSt16invalid_argumentD2Ev
libonemkl.so.0:_ZNSt19__codecvt_utf8_baseIDiED0Ev
libonemkl.so.0:_ZNSt19__codecvt_utf8_baseIDiED1Ev
libonemkl.so.0:_ZNSt19__codecvt_utf8_baseIDiED2Ev
libonemkl.so.0:_ZNSt19__codecvt_utf8_baseIDsED0Ev
libonemkl.so.0:_ZNSt19__codecvt_utf8_baseIDsED1Ev
libonemkl.so.0:_ZNSt19__codecvt_utf8_baseIDsED2Ev
libonemkl.so.0:_ZNSt19__codecvt_utf8_baseIwED0Ev
libonemkl.so.0:_ZNSt19__codecvt_utf8_baseIwED1Ev
libonemkl.so.0:_ZNSt19__codecvt_utf8_baseIwED2Ev
libonemkl.so.0:_ZNSt19__iosfail_type_infoD0Ev
libonemkl.so.0:_ZNSt19__iosfail_type_infoD1Ev
libonemkl.so.0:_ZNSt19__iosfail_type_infoD2Ev
libonemkl.so.0:_ZNSt20__codecvt_utf16_baseIDiED0Ev
libonemkl.so.0:_ZNSt20__codecvt_utf16_baseIDiED1Ev
libonemkl.so.0:_ZNSt20__codecvt_utf16_baseIDiED2Ev
libonemkl.so.0:_ZNSt20__codecvt_utf16_baseIDsED0Ev
libonemkl.so.0:_ZNSt20__codecvt_utf16_baseIDsED1Ev
libonemkl.so.0:_ZNSt20__codecvt_utf16_baseIDsED2Ev
libonemkl.so.0:_ZNSt20__codecvt_utf16_baseIwED0Ev
libonemkl.so.0:_ZNSt20__codecvt_utf16_baseIwED1Ev
libonemkl.so.0:_ZNSt20__codecvt_utf16_baseIwED2Ev
libonemkl.so.0:_ZNSt20bad_array_new_lengthD0Ev
libonemkl.so.0:_ZNSt20bad_array_new_lengthD1Ev
libonemkl.so.0:_ZNSt20bad_array_new_lengthD2Ev
libonemkl.so.0:_ZNSt25__codecvt_utf8_utf16_baseIDiED0Ev
libonemkl.so.0:_ZNSt25__codecvt_utf8_utf16_baseIDiED1Ev
libonemkl.so.0:_ZNSt25__codecvt_utf8_utf16_baseIDiED2Ev
libonemkl.so.0:_ZNSt25__codecvt_utf8_utf16_baseIDsED0Ev
libonemkl.so.0:_ZNSt25__codecvt_utf8_utf16_baseIDsED1Ev
libonemkl.so.0:_ZNSt25__codecvt_utf8_utf16_baseIDsED2Ev
libonemkl.so.0:_ZNSt25__codecvt_utf8_utf16_baseIwED0Ev
libonemkl.so.0:_ZNSt25__codecvt_utf8_utf16_baseIwED1Ev
libonemkl.so.0:_ZNSt25__codecvt_utf8_utf16_baseIwED2Ev
libonemkl.so.0:_ZNSt3_V214error_categoryD0Ev
libonemkl.so.0:_ZNSt3_V214error_categoryD1Ev
libonemkl.so.0:_ZNSt3_V214error_categoryD2Ev
libonemkl.so.0:_ZNSt3_V215system_categoryEv
libonemkl.so.0:_ZNSt3_V216generic_categoryEv
libonemkl.so.0:_ZNSt5ctypeIcE13classic_tableEv
libonemkl.so.0:_ZNSt5ctypeIcEC1EP15__locale_structPKtbm
libonemkl.so.0:_ZNSt5ctypeIcEC1EPKtbm
libonemkl.so.0:_ZNSt5ctypeIcEC2EP15__locale_structPKtbm
libonemkl.so.0:_ZNSt5ctypeIcEC2EPKtbm
libonemkl.so.0:_ZNSt5ctypeIcED0Ev
libonemkl.so.0:_ZNSt5ctypeIcED1Ev
libonemkl.so.0:_ZNSt5ctypeIcED2Ev
libonemkl.so.0:_ZNSt5ctypeIwE19_M_initialize_ctypeEv
libonemkl.so.0:_ZNSt5ctypeIwEC1EP15__locale_structm
libonemkl.so.0:_ZNSt5ctypeIwEC1Em
libonemkl.so.0:_ZNSt5ctypeIwEC2EP15__locale_structm
libonemkl.so.0:_ZNSt5ctypeIwEC2Em
libonemkl.so.0:_ZNSt5ctypeIwED0Ev
libonemkl.so.0:_ZNSt5ctypeIwED1Ev
libonemkl.so.0:_ZNSt5ctypeIwED2Ev
libonemkl.so.0:_ZNSt6locale13_S_initializeEv
libonemkl.so.0:_ZNSt6locale18_S_initialize_onceEv
libonemkl.so.0:_ZNSt6locale21_S_normalize_categoryEi
libonemkl.so.0:_ZNSt6locale5_Impl13_M_init_extraEPPNS_5facetE
libonemkl.so.0:_ZNSt6locale5_Impl13_M_init_extraEPvS1_PKcS3_
libonemkl.so.0:_ZNSt6locale5_Impl16_M_install_cacheEPKNS_5facetEm
libonemkl.so.0:_ZNSt6locale5_Impl16_M_install_facetEPKNS_2idEPKNS_5facetE
libonemkl.so.0:_ZNSt6locale5_Impl16_M_replace_facetEPKS0_PKNS_2idE
libonemkl.so.0:_ZNSt6locale5_Impl19_M_replace_categoryEPKS0_PKPKNS_2idE
libonemkl.so.0:_ZNSt6locale5_ImplC1ERKS0_m
libonemkl.so.0:_ZNSt6locale5_ImplC1Em
libonemkl.so.0:_ZNSt6locale5_ImplC2ERKS0_m
libonemkl.so.0:_ZNSt6locale5_ImplC2Em
libonemkl.so.0:_ZNSt6locale5_ImplD1Ev
libonemkl.so.0:_ZNSt6locale5_ImplD2Ev
libonemkl.so.0:_ZNSt6locale5facet13_S_get_c_nameEv
libonemkl.so.0:_ZNSt6locale5facet15_S_get_c_localeEv
libonemkl.so.0:_ZNSt6locale5facet17_S_clone_c_localeERP15__locale_struct
libonemkl.so.0:_ZNSt6locale5facet18_S_create_c_localeERP15__locale_structPKcS2_
libonemkl.so.0:_ZNSt6locale5facet18_S_initialize_onceEv
libonemkl.so.0:_ZNSt6locale5facet19_S_destroy_c_localeERP15__locale_struct
libonemkl.so.0:_ZNSt6locale5facet20_S_lc_ctype_c_localeEP15__locale_structPKc
libonemkl.so.0:_ZNSt6locale5facetD0Ev
libonemkl.so.0:_ZNSt6locale5facetD1Ev
libonemkl.so.0:_ZNSt6locale5facetD2Ev
libonemkl.so.0:_ZNSt6locale6globalERKS_
libonemkl.so.0:_ZNSt6locale7classicEv
libonemkl.so.0:_ZNSt6localeC1EPNS_5_ImplE
libonemkl.so.0:_ZNSt6localeC1ERKS_
libonemkl.so.0:_ZNSt6localeC1Ev
libonemkl.so.0:_ZNSt6localeC2EPNS_5_ImplE
libonemkl.so.0:_ZNSt6localeC2ERKS_
libonemkl.so.0:_ZNSt6localeC2Ev
libonemkl.so.0:_ZNSt6localeD1Ev
libonemkl.so.0:_ZNSt6localeD2Ev
libonemkl.so.0:_ZNSt6localeaSERKS_
libonemkl.so.0:_ZNSt7__cxx1110moneypunctIcLb0EE24_M_initialize_moneypunctEP15__locale_structPKc
libonemkl.so.0:_ZNSt7__cxx1110moneypunctIcLb0EED0Ev
libonemkl.so.0:_ZNSt7__cxx1110moneypunctIcLb0EED1Ev
libonemkl.so.0:_ZNSt7__cxx1110moneypunctIcLb0EED2Ev
libonemkl.so.0:_ZNSt7__cxx1110moneypunctIcLb1EE24_M_initialize_moneypunctEP15__locale_structPKc
libonemkl.so.0:_ZNSt7__cxx1110moneypunctIcLb1EED0Ev
libonemkl.so.0:_ZNSt7__cxx1110moneypunctIcLb1EED1Ev
libonemkl.so.0:_ZNSt7__cxx1110moneypunctIcLb1EED2Ev
libonemkl.so.0:_ZNSt7__cxx1110moneypunctIwLb0EE24_M_initialize_moneypunctEP15__locale_structPKc
libonemkl.so.0:_ZNSt7__cxx1110moneypunctIwLb0EED0Ev
libonemkl.so.0:_ZNSt7__cxx1110moneypunctIwLb0EED1Ev
libonemkl.so.0:_ZNSt7__cxx1110moneypunctIwLb0EED2Ev
libonemkl.so.0:_ZNSt7__cxx1110moneypunctIwLb1EE24_M_initialize_moneypunctEP15__locale_structPKc
libonemkl.so.0:_ZNSt7__cxx1110moneypunctIwLb1EED0Ev
libonemkl.so.0:_ZNSt7__cxx1110moneypunctIwLb1EED1Ev
libonemkl.so.0:_ZNSt7__cxx1110moneypunctIwLb1EED2Ev
libonemkl.so.0:_ZNSt7__cxx118numpunctIcE22_M_initialize_numpunctEP15__locale_struct
libonemkl.so.0:_ZNSt7__cxx118numpunctIcED0Ev
libonemkl.so.0:_ZNSt7__cxx118numpunctIcED1Ev
libonemkl.so.0:_ZNSt7__cxx118numpunctIcED2Ev
libonemkl.so.0:_ZNSt7__cxx118numpunctIwE22_M_initialize_numpunctEP15__locale_struct
libonemkl.so.0:_ZNSt7__cxx118numpunctIwED0Ev
libonemkl.so.0:_ZNSt7__cxx118numpunctIwED1Ev
libonemkl.so.0:_ZNSt7__cxx118numpunctIwED2Ev
libonemkl.so.0:_ZNSt7codecvtIDiDu11__mbstate_tED0Ev
libonemkl.so.0:_ZNSt7codecvtIDiDu11__mbstate_tED1Ev
libonemkl.so.0:_ZNSt7codecvtIDiDu11__mbstate_tED2Ev
libonemkl.so.0:_ZNSt7codecvtIDic11__mbstate_tED0Ev
libonemkl.so.0:_ZNSt7codecvtIDic11__mbstate_tED1Ev
libonemkl.so.0:_ZNSt7codecvtIDic11__mbstate_tED2Ev
libonemkl.so.0:_ZNSt7codecvtIDsDu11__mbstate_tED0Ev
libonemkl.so.0:_ZNSt7codecvtIDsDu11__mbstate_tED1Ev
libonemkl.so.0:_ZNSt7codecvtIDsDu11__mbstate_tED2Ev
libonemkl.so.0:_ZNSt7codecvtIDsc11__mbstate_tED0Ev
libonemkl.so.0:_ZNSt7codecvtIDsc11__mbstate_tED1Ev
libonemkl.so.0:_ZNSt7codecvtIDsc11__mbstate_tED2Ev
libonemkl.so.0:_ZNSt7codecvtIcc11__mbstate_tEC1EP15__locale_structm
libonemkl.so.0:_ZNSt7codecvtIcc11__mbstate_tEC1Em
libonemkl.so.0:_ZNSt7codecvtIcc11__mbstate_tEC2EP15__locale_structm
libonemkl.so.0:_ZNSt7codecvtIcc11__mbstate_tEC2Em
libonemkl.so.0:_ZNSt7codecvtIcc11__mbstate_tED0Ev
libonemkl.so.0:_ZNSt7codecvtIcc11__mbstate_tED1Ev
libonemkl.so.0:_ZNSt7codecvtIcc11__mbstate_tED2Ev
libonemkl.so.0:_ZNSt7codecvtIwc11__mbstate_tEC1EP15__locale_structm
libonemkl.so.0:_ZNSt7codecvtIwc11__mbstate_tEC1Em
libonemkl.so.0:_ZNSt7codecvtIwc11__mbstate_tEC2EP15__locale_structm
libonemkl.so.0:_ZNSt7codecvtIwc11__mbstate_tEC2Em
libonemkl.so.0:_ZNSt7codecvtIwc11__mbstate_tED0Ev
libonemkl.so.0:_ZNSt7codecvtIwc11__mbstate_tED1Ev
libonemkl.so.0:_ZNSt7codecvtIwc11__mbstate_tED2Ev
libonemkl.so.0:_ZNSt8Catalogs6_M_addEPKcSt6locale
libonemkl.so.0:_ZNSt8Catalogs8_M_eraseEi
libonemkl.so.0:_ZNSt8CatalogsD1Ev
libonemkl.so.0:_ZNSt8CatalogsD2Ev
libonemkl.so.0:_ZNSt8bad_castD0Ev
libonemkl.so.0:_ZNSt8bad_castD1Ev
libonemkl.so.0:_ZNSt8bad_castD2Ev
libonemkl.so.0:_ZNSt8ios_base13_M_grow_wordsEib
libonemkl.so.0:_ZNSt8ios_base15sync_with_stdioEb
libonemkl.so.0:_ZNSt8ios_base17_M_call_callbacksENS_5eventE
libonemkl.so.0:_ZNSt8ios_base17register_callbackEPFvNS_5eventERS_iEi
libonemkl.so.0:_ZNSt8ios_base20_M_dispose_callbacksEv
libonemkl.so.0:_ZNSt8ios_base4InitC1Ev
libonemkl.so.0:_ZNSt8ios_base4InitC2Ev
libonemkl.so.0:_ZNSt8ios_base4InitD1Ev
libonemkl.so.0:_ZNSt8ios_base4InitD2Ev
libonemkl.so.0:_ZNSt8ios_base5imbueERKSt6locale
libonemkl.so.0:_ZNSt8ios_base6xallocEv
libonemkl.so.0:_ZNSt8ios_base7_M_initEv
libonemkl.so.0:_ZNSt8ios_base7_M_moveERS_
libonemkl.so.0:_ZNSt8ios_base7_M_swapERS_
libonemkl.so.0:_ZNSt8ios_base7failureB5cxx11C1EPKcRKSt10error_code
libonemkl.so.0:_ZNSt8ios_base7failureB5cxx11C1ERKNSt7__cxx1112basic_stringIcSt11char_traitsIcESaIcEEE
libonemkl.so.0:_ZNSt8ios_base7failureB5cxx11C1ERKNSt7__cxx1112basic_stringIcSt11char_traitsIcESaIcEEERKSt10error_code
libonemkl.so.0:_ZNSt8ios_base7failureB5cxx11C2EPKcRKSt10error_code
libonemkl.so.0:_ZNSt8ios_base7failureB5cxx11C2ERKNSt7__cxx1112basic_stringIcSt11char_traitsIcESaIcEEE
libonemkl.so.0:_ZNSt8ios_base7failureB5cxx11C2ERKNSt7__cxx1112basic_stringIcSt11char_traitsIcESaIcEEERKSt10error_code
libonemkl.so.0:_ZNSt8ios_base7failureB5cxx11D0Ev
libonemkl.so.0:_ZNSt8ios_base7failureB5cxx11D1Ev
libonemkl.so.0:_ZNSt8ios_base7failureB5cxx11D2Ev
libonemkl.so.0:_ZNSt8ios_base7failureC1ERKSs
libonemkl.so.0:_ZNSt8ios_base7failureC2ERKSs
libonemkl.so.0:_ZNSt8ios_base7failureD0Ev
libonemkl.so.0:_ZNSt8ios_base7failureD1Ev
libonemkl.so.0:_ZNSt8ios_base7failureD2Ev
libonemkl.so.0:_ZNSt8ios_baseC1Ev
libonemkl.so.0:_ZNSt8ios_baseC2Ev
libonemkl.so.0:_ZNSt8ios_baseD0Ev
libonemkl.so.0:_ZNSt8ios_baseD1Ev
libonemkl.so.0:_ZNSt8ios_baseD2Ev
libonemkl.so.0:_ZNSt8numpunctIcE22_M_initialize_numpunctEP15__locale_struct
libonemkl.so.0:_ZNSt8numpunctIcED0Ev
libonemkl.so.0:_ZNSt8numpunctIcED1Ev
libonemkl.so.0:_ZNSt8numpunctIcED2Ev
libonemkl.so.0:_ZNSt8numpunctIwE22_M_initialize_numpunctEP15__locale_struct
libonemkl.so.0:_ZNSt8numpunctIwED0Ev
libonemkl.so.0:_ZNSt8numpunctIwED1Ev
libonemkl.so.0:_ZNSt8numpunctIwED2Ev
libonemkl.so.0:_ZNSt9bad_allocD0Ev
libonemkl.so.0:_ZNSt9bad_allocD1Ev
libonemkl.so.0:_ZNSt9bad_allocD2Ev
libonemkl.so.0:_ZNSt9exceptionD0Ev
libonemkl.so.0:_ZNSt9exceptionD1Ev
libonemkl.so.0:_ZNSt9exceptionD2Ev
libonemkl.so.0:_ZNSt9type_infoD0Ev
libonemkl.so.0:_ZNSt9type_infoD1Ev
libonemkl.so.0:_ZNSt9type_infoD2Ev
libonemkl.so.0:_ZSt10unexpectedv
libonemkl.so.0:_ZSt12get_catalogsv
libonemkl.so.0:_ZSt13get_terminatev
libonemkl.so.0:_ZSt13set_terminatePFvvE
libonemkl.so.0:_ZSt14__convert_to_vIdEvPKcRT_RSt12_Ios_IostateRKP15__locale_struct
libonemkl.so.0:_ZSt14__convert_to_vIeEvPKcRT_RSt12_Ios_IostateRKP15__locale_struct
libonemkl.so.0:_ZSt14__convert_to_vIfEvPKcRT_RSt12_Ios_IostateRKP15__locale_struct
libonemkl.so.0:_ZSt14get_unexpectedv
libonemkl.so.0:_ZSt14set_unexpectedPFvvE
libonemkl.so.0:_ZSt15get_new_handlerv
libonemkl.so.0:_ZSt15set_new_handlerPFvvE
libonemkl.so.0:_ZSt16__throw_bad_castv
libonemkl.so.0:_ZSt17__istream_extractRSiPcl
libonemkl.so.0:_ZSt17__throw_bad_allocv
libonemkl.so.0:_ZSt17__verify_groupingPKcmRKNSt7__cxx1112basic_stringIcSt11char_traitsIcESaIcEEE
libonemkl.so.0:_ZSt17__verify_groupingPKcmRKSs
libonemkl.so.0:_ZSt17iostream_categoryv
libonemkl.so.0:_ZSt18_Rb_tree_decrementPKSt18_Rb_tree_node_base
libonemkl.so.0:_ZSt18_Rb_tree_decrementPSt18_Rb_tree_node_base
libonemkl.so.0:_ZSt18_Rb_tree_incrementPKSt18_Rb_tree_node_base
libonemkl.so.0:_ZSt18_Rb_tree_incrementPSt18_Rb_tree_node_base
libonemkl.so.0:_ZSt18__throw_bad_typeidv
libonemkl.so.0:_ZSt18uncaught_exceptionv
libonemkl.so.0:_ZSt19__throw_ios_failurePKc
libonemkl.so.0:_ZSt19__throw_ios_failurePKci
libonemkl.so.0:_ZSt19__throw_logic_errorPKc
libonemkl.so.0:_ZSt19__throw_range_errorPKc
libonemkl.so.0:_ZSt19uncaught_exceptionsv
libonemkl.so.0:_ZSt20_Rb_tree_black_countPKSt18_Rb_tree_node_baseS1_
libonemkl.so.0:_ZSt20_Rb_tree_rotate_leftPSt18_Rb_tree_node_baseRS0_
libonemkl.so.0:_ZSt20__throw_domain_errorPKc
libonemkl.so.0:_ZSt20__throw_length_errorPKc
libonemkl.so.0:_ZSt20__throw_out_of_rangePKc
libonemkl.so.0:_ZSt20__throw_system_errori
libonemkl.so.0:_ZSt21_Rb_tree_rotate_rightPSt18_Rb_tree_node_baseRS0_
libonemkl.so.0:_ZSt21__copy_streambufs_eofIcSt11char_traitsIcEElPSt15basic_streambufIT_T0_ES6_Rb
libonemkl.so.0:_ZSt21__copy_streambufs_eofIwSt11char_traitsIwEElPSt15basic_streambufIT_T0_ES6_Rb
libonemkl.so.0:_ZSt21__destroy_ios_failurePv
libonemkl.so.0:_ZSt21__throw_bad_exceptionv
libonemkl.so.0:_ZSt21__throw_runtime_errorPKc
libonemkl.so.0:_ZSt22__throw_overflow_errorPKc
libonemkl.so.0:_ZSt22__verify_grouping_implPKcmS0_m
libonemkl.so.0:_ZSt23__construct_ios_failurePvPKc
libonemkl.so.0:_ZSt23__throw_underflow_errorPKc
libonemkl.so.0:_ZSt24__is_ios_failure_handlerPKN10__cxxabiv117__class_type_infoE
libonemkl.so.0:_ZSt24__narrow_multibyte_charsPKcP15__locale_struct
libonemkl.so.0:_ZSt24__throw_invalid_argumentPKc
libonemkl.so.0:_ZSt24__throw_out_of_range_fmtPKcz
libonemkl.so.0:_ZSt28_Rb_tree_rebalance_for_erasePSt18_Rb_tree_node_baseRS_
libonemkl.so.0:_ZSt28__throw_bad_array_new_lengthv
libonemkl.so.0:_ZSt29_Rb_tree_insert_and_rebalancebPSt18_Rb_tree_node_baseS0_RS_
libonemkl.so.0:_ZSt9terminatev
libonemkl.so.0:_ZdaPv
libonemkl.so.0:_ZdlPv
libonemkl.so.0:_ZdlPvm
libonemkl.so.0:_Znam
libonemkl.so.0:_ZnamRKSt9nothrow_t
libonemkl.so.0:_Znwm
libonemkl.so.0:__addq
libonemkl.so.0:__cacheSize
libonemkl.so.0:__compareq
libonemkl.so.0:__cxa_allocate_dependent_exception
libonemkl.so.0:__cxa_allocate_exception
libonemkl.so.0:__cxa_bad_cast
libonemkl.so.0:__cxa_bad_typeid
libonemkl.so.0:__cxa_begin_catch
libonemkl.so.0:__cxa_call_terminate
libonemkl.so.0:__cxa_call_unexpected
libonemkl.so.0:__cxa_current_exception_type
libonemkl.so.0:__cxa_demangle
libonemkl.so.0:__cxa_end_catch
libonemkl.so.0:__cxa_free_dependent_exception
libonemkl.so.0:__cxa_free_exception
libonemkl.so.0:__cxa_get_exception_ptr
libonemkl.so.0:__cxa_get_globals
libonemkl.so.0:__cxa_get_globals_fast
libonemkl.so.0:__cxa_guard_abort
libonemkl.so.0:__cxa_guard_acquire
libonemkl.so.0:__cxa_guard_release
libonemkl.so.0:__cxa_init_primary_exception
libonemkl.so.0:__cxa_rethrow
libonemkl.so.0:__cxa_throw
libonemkl.so.0:__cxa_throw_bad_array_new_length
libonemkl.so.0:__divq
libonemkl.so.0:__divq.A
libonemkl.so.0:__divq.L
libonemkl.so.0:__dtoq
libonemkl.so.0:__dynamic_cast
libonemkl.so.0:__eqq
libonemkl.so.0:__ftoq
libonemkl.so.0:__gcclibcxx_demangle_callback
libonemkl.so.0:__geq
libonemkl.so.0:__gtq
libonemkl.so.0:__gxx_personality_v0
libonemkl.so.0:__intel_avx_rep_memcpy
libonemkl.so.0:__intel_avx_rep_memset
libonemkl.so.0:__intel_cpu_features_init_x
libonemkl.so.0:__intel_memcpy
libonemkl.so.0:__intel_memset
libonemkl.so.0:__intel_mic_avx512f_memcpy
libonemkl.so.0:__intel_mic_avx512f_memset
libonemkl.so.0:__intel_new_memcpy
libonemkl.so.0:__intel_new_memset
libonemkl.so.0:__intel_ssse3_memcpy
libonemkl.so.0:__intel_ssse3_rep_memcpy
libonemkl.so.0:__leq
libonemkl.so.0:__ltoq
libonemkl.so.0:__ltq
libonemkl.so.0:__mulq
libonemkl.so.0:__mulq.A
libonemkl.so.0:__mulq.L
libonemkl.so.0:__negq
libonemkl.so.0:__neq
libonemkl.so.0:__qtod
libonemkl.so.0:__qtof
libonemkl.so.0:__qtol
libonemkl.so.0:__subq
libonemkl.so.0:__svml_cbrt2_ha
libonemkl.so.0:__svml_cbrt2_ha_e7
libonemkl.so.0:__svml_cbrt2_ha_e9
libonemkl.so.0:__svml_cbrt2_ha_ex
libonemkl.so.0:__svml_cbrt2_ha_l9
libonemkl.so.0:__svml_cbrtf4_ha
libonemkl.so.0:__svml_cbrtf4_ha_e7
libonemkl.so.0:__svml_cbrtf4_ha_e9
libonemkl.so.0:__svml_cbrtf4_ha_ex
libonemkl.so.0:__svml_cbrtf4_ha_l9
libonemkl.so.0:__svml_erfc2_ha
libonemkl.so.0:__svml_erfc2_ha_e7
libonemkl.so.0:__svml_erfc2_ha_e9
libonemkl.so.0:__svml_erfc2_ha_ex
libonemkl.so.0:__svml_erfc2_ha_l9
libonemkl.so.0:__svml_feature_flag_init
libonemkl.so.0:__svml_hypot2_ha
libonemkl.so.0:__svml_hypot2_ha_e7
libonemkl.so.0:__svml_hypot2_ha_e9
libonemkl.so.0:__svml_hypot2_ha_ex
libonemkl.so.0:__svml_hypot2_ha_l9
libonemkl.so.0:__svml_hypotf4_ha
libonemkl.so.0:__svml_hypotf4_ha_e7
libonemkl.so.0:__svml_hypotf4_ha_e9
libonemkl.so.0:__svml_hypotf4_ha_ex
libonemkl.so.0:__svml_hypotf4_ha_l9
libonemkl.so.0:_intel_fast_memcpy
libonemkl.so.0:_intel_fast_memset
libonemkl_lapack_mklcpu.so.0:_Z20_txnal_cow_string_D1Pv
libonemkl_lapack_mklcpu.so.0:_Z23_txnal_cow_string_c_strPKv
libonemkl_lapack_mklcpu.so.0:_Z23_txnal_sso_string_c_strPKv
libonemkl_lapack_mklcpu.so.0:_Z26_txnal_logic_error_get_msgPv
libonemkl_lapack_mklcpu.so.0:_Z27_txnal_cow_string_D1_commitPv
libonemkl_lapack_mklcpu.so.0:_Z28_txnal_runtime_error_get_msgPv
libonemkl_lapack_mklcpu.so.0:_Z35_txnal_cow_string_C1_for_exceptionsPvPKcS_
libonemkl_lapack_mklcpu.so.0:_ZGTtNKSt11logic_error4whatEv
libonemkl_lapack_mklcpu.so.0:_ZGTtNKSt13bad_exception4whatEv
libonemkl_lapack_mklcpu.so.0:_ZGTtNKSt13bad_exceptionD1Ev
libonemkl_lapack_mklcpu.so.0:_ZGTtNKSt13runtime_error4whatEv
libonemkl_lapack_mklcpu.so.0:_ZGTtNKSt9exception4whatEv
libonemkl_lapack_mklcpu.so.0:_ZGTtNKSt9exceptionD1Ev
libonemkl_lapack_mklcpu.so.0:_ZGTtNSt11logic_errorC1EPKc
libonemkl_lapack_mklcpu.so.0:_ZGTtNSt11logic_errorC1ERKNSt7__cxx1112basic_stringIcSt11char_traitsIcESaIcEEE
libonemkl_lapack_mklcpu.so.0:_ZGTtNSt11logic_errorC2EPKc
libonemkl_lapack_mklcpu.so.0:_ZGTtNSt11logic_errorC2ERKNSt7__cxx1112basic_stringIcSt11char_traitsIcESaIcEEE
libonemkl_lapack_mklcpu.so.0:_ZGTtNSt11logic_errorD0Ev
libonemkl_lapack_mklcpu.so.0:_ZGTtNSt11logic_errorD1Ev
libonemkl_lapack_mklcpu.so.0:_ZGTtNSt11logic_errorD2Ev
libonemkl_lapack_mklcpu.so.0:_ZGTtNSt11range_errorC1EPKc
libonemkl_lapack_mklcpu.so.0:_ZGTtNSt11range_errorC1ERKNSt7__cxx1112basic_stringIcSt11char_traitsIcESaIcEEE
libonemkl_lapack_mklcpu.so.0:_ZGTtNSt11range_errorC2EPKc
libonemkl_lapack_mklcpu.so.0:_ZGTtNSt11range_errorC2ERKNSt7__cxx1112basic_stringIcSt11char_traitsIcESaIcEEE
libonemkl_lapack_mklcpu.so.0:_ZGTtNSt11range_errorD0Ev
libonemkl_lapack_mklcpu.so.0:_ZGTtNSt11range_errorD1Ev
libonemkl_lapack_mklcpu.so.0:_ZGTtNSt11range_errorD2Ev
libonemkl_lapack_mklcpu.so.0:_ZGTtNSt12domain_errorC1EPKc
libonemkl_lapack_mklcpu.so.0:_ZGTtNSt12domain_errorC1ERKNSt7__cxx1112basic_stringIcSt11char_traitsIcESaIcEEE
libonemkl_lapack_mklcpu.so.0:_ZGTtNSt12domain_errorC2EPKc
libonemkl_lapack_mklcpu.so.0:_ZGTtNSt12domain_errorC2ERKNSt7__cxx1112basic_stringIcSt11char_traitsIcESaIcEEE
libonemkl_lapack_mklcpu.so.0:_ZGTtNSt12domain_errorD0Ev
libonemkl_lapack_mklcpu.so.0:_ZGTtNSt12domain_errorD1Ev
libonemkl_lapack_mklcpu.so.0:_ZGTtNSt12domain_errorD2Ev
libonemkl_lapack_mklcpu.so.0:_ZGTtNSt12length_errorC1EPKc
libonemkl_lapack_mklcpu.so.0:_ZGTtNSt12length_errorC1ERKNSt7__cxx1112basic_stringIcSt11char_traitsIcESaIcEEE
libonemkl_lapack_mklcpu.so.0:_ZGTtNSt12length_errorC2EPKc
libonemkl_lapack_mklcpu.so.0:_ZGTtNSt12length_errorC2ERKNSt7__cxx1112basic_stringIcSt11char_traitsIcESaIcEEE
libonemkl_lapack_mklcpu.so.0:_ZGTtNSt12length_errorD0Ev
libonemkl_lapack_mklcpu.so.0:_ZGTtNSt12length_errorD1Ev
libonemkl_lapack_mklcpu.so.0:_ZGTtNSt12length_errorD2Ev
libonemkl_lapack_mklcpu.so.0:_ZGTtNSt12out_of_rangeC1EPKc
libonemkl_lapack_mklcpu.so.0:_ZGTtNSt12out_of_rangeC1ERKNSt7__cxx1112basic_stringIcSt11char_traitsIcESaIcEEE
libonemkl_lapack_mklcpu.so.0:_ZGTtNSt12out_of_rangeC2EPKc
libonemkl_lapack_mklcpu.so.0:_ZGTtNSt12out_of_rangeC2ERKNSt7__cxx1112basic_stringIcSt11char_traitsIcESaIcEEE
libonemkl_lapack_mklcpu.so.0:_ZGTtNSt12out_of_rangeD0Ev
libonemkl_lapack_mklcpu.so.0:_ZGTtNSt12out_of_rangeD1Ev
libonemkl_lapack_mklcpu.so.0:_ZGTtNSt12out_of_rangeD2Ev
libonemkl_lapack_mklcpu.so.0:_ZGTtNSt13runtime_errorC1EPKc
libonemkl_lapack_mklcpu.so.0:_ZGTtNSt13runtime_errorC1ERKNSt7__cxx1112basic_stringIcSt11char_traitsIcESaIcEEE
libonemkl_lapack_mklcpu.so.0:_ZGTtNSt13runtime_errorC2EPKc
libonemkl_lapack_mklcpu.so.0:_ZGTtNSt13runtime_errorC2ERKNSt7__cxx1112basic_stringIcSt11char_traitsIcESaIcEEE
libonemkl_lapack_mklcpu.so.0:_ZGTtNSt13runtime_errorD0Ev
libonemkl_lapack_mklcpu.so.0:_ZGTtNSt13runtime_errorD1Ev
libonemkl_lapack_mklcpu.so.0:_ZGTtNSt13runtime_errorD2Ev
libonemkl_lapack_mklcpu.so.0:_ZGTtNSt14overflow_errorC1EPKc
libonemkl_lapack_mklcpu.so.0:_ZGTtNSt14overflow_errorC1ERKNSt7__cxx1112basic_stringIcSt11char_traitsIcESaIcEEE
libonemkl_lapack_mklcpu.so.0:_ZGTtNSt14overflow_errorC2EPKc
libonemkl_lapack_mklcpu.so.0:_ZGTtNSt14overflow_errorC2ERKNSt7__cxx1112basic_stringIcSt11char_traitsIcESaIcEEE
libonemkl_lapack_mklcpu.so.0:_ZGTtNSt14overflow_errorD0Ev
libonemkl_lapack_mklcpu.so.0:_ZGTtNSt14overflow_errorD1Ev
libonemkl_lapack_mklcpu.so.0:_ZGTtNSt14overflow_errorD2Ev
libonemkl_lapack_mklcpu.so.0:_ZGTtNSt15underflow_errorC1EPKc
libonemkl_lapack_mklcpu.so.0:_ZGTtNSt15underflow_errorC1ERKNSt7__cxx1112basic_stringIcSt11char_traitsIcESaIcEEE
libonemkl_lapack_mklcpu.so.0:_ZGTtNSt15underflow_errorC2EPKc
libonemkl_lapack_mklcpu.so.0:_ZGTtNSt15underflow_errorC2ERKNSt7__cxx1112basic_stringIcSt11char_traitsIcESaIcEEE
libonemkl_lapack_mklcpu.so.0:_ZGTtNSt15underflow_errorD0Ev
libonemkl_lapack_mklcpu.so.0:_ZGTtNSt15underflow_errorD1Ev
libonemkl_lapack_mklcpu.so.0:_ZGTtNSt15underflow_errorD2Ev
libonemkl_lapack_mklcpu.so.0:_ZGTtNSt16invalid_argumentC1EPKc
libonemkl_lapack_mklcpu.so.0:_ZGTtNSt16invalid_argumentC1ERKNSt7__cxx1112basic_stringIcSt11char_traitsIcESaIcEEE
libonemkl_lapack_mklcpu.so.0:_ZGTtNSt16invalid_argumentC2EPKc
libonemkl_lapack_mklcpu.so.0:_ZGTtNSt16invalid_argumentC2ERKNSt7__cxx1112basic_stringIcSt11char_traitsIcESaIcEEE
libonemkl_lapack_mklcpu.so.0:_ZGTtNSt16invalid_argumentD0Ev
libonemkl_lapack_mklcpu.so.0:_ZGTtNSt16invalid_argumentD1Ev
libonemkl_lapack_mklcpu.so.0:_ZGTtNSt16invalid_argumentD2Ev
libonemkl_lapack_mklcpu.so.0:_ZN10__cxxabiv111__terminateEPFvvE
libonemkl_lapack_mklcpu.so.0:_ZN10__cxxabiv112__unexpectedEPFvvE
libonemkl_lapack_mklcpu.so.0:_ZN10__cxxabiv115__forced_unwindD0Ev
libonemkl_lapack_mklcpu.so.0:_ZN10__cxxabiv115__forced_unwindD1Ev
libonemkl_lapack_mklcpu.so.0:_ZN10__cxxabiv115__forced_unwindD2Ev
libonemkl_lapack_mklcpu.so.0:_ZN10__cxxabiv117__class_type_infoD0Ev
libonemkl_lapack_mklcpu.so.0:_ZN10__cxxabiv117__class_type_infoD1Ev
libonemkl_lapack_mklcpu.so.0:_ZN10__cxxabiv117__class_type_infoD2Ev
libonemkl_lapack_mklcpu.so.0:_ZN10__cxxabiv117__pbase_type_infoD0Ev
libonemkl_lapack_mklcpu.so.0:_ZN10__cxxabiv117__pbase_type_infoD1Ev
libonemkl_lapack_mklcpu.so.0:_ZN10__cxxabiv117__pbase_type_infoD2Ev
libonemkl_lapack_mklcpu.so.0:_ZN10__cxxabiv119__foreign_exceptionD0Ev
libonemkl_lapack_mklcpu.so.0:_ZN10__cxxabiv119__foreign_exceptionD1Ev
libonemkl_lapack_mklcpu.so.0:_ZN10__cxxabiv119__foreign_exceptionD2Ev
libonemkl_lapack_mklcpu.so.0:_ZN10__cxxabiv119__pointer_type_infoD0Ev
libonemkl_lapack_mklcpu.so.0:_ZN10__cxxabiv119__pointer_type_infoD1Ev
libonemkl_lapack_mklcpu.so.0:_ZN10__cxxabiv119__pointer_type_infoD2Ev
libonemkl_lapack_mklcpu.so.0:_ZN10__cxxabiv120__function_type_infoD0Ev
libonemkl_lapack_mklcpu.so.0:_ZN10__cxxabiv120__function_type_infoD1Ev
libonemkl_lapack_mklcpu.so.0:_ZN10__cxxabiv120__function_type_infoD2Ev
libonemkl_lapack_mklcpu.so.0:_ZN10__cxxabiv120__si_class_type_infoD0Ev
libonemkl_lapack_mklcpu.so.0:_ZN10__cxxabiv120__si_class_type_infoD1Ev
libonemkl_lapack_mklcpu.so.0:_ZN10__cxxabiv120__si_class_type_infoD2Ev
libonemkl_lapack_mklcpu.so.0:_ZN10__cxxabiv121__vmi_class_type_infoD0Ev
libonemkl_lapack_mklcpu.so.0:_ZN10__cxxabiv121__vmi_class_type_infoD1Ev
libonemkl_lapack_mklcpu.so.0:_ZN10__cxxabiv121__vmi_class_type_infoD2Ev
libonemkl_lapack_mklcpu.so.0:_ZN10__cxxabiv123__fundamental_type_infoD0Ev
libonemkl_lapack_mklcpu.so.0:_ZN10__cxxabiv123__fundamental_type_infoD1Ev
libonemkl_lapack_mklcpu.so.0:_ZN10__cxxabiv123__fundamental_type_infoD2Ev
libonemkl_lapack_mklcpu.so.0:_ZN10__cxxabiv129__pointer_to_member_type_infoD0Ev
libonemkl_lapack_mklcpu.so.0:_ZN10__cxxabiv129__pointer_to_member_type_infoD1Ev
libonemkl_lapack_mklcpu.so.0:_ZN10__cxxabiv129__pointer_to_member_type_infoD2Ev
libonemkl_lapack_mklcpu.so.0:_ZN6oneapi3mkl6lapack6mklcpu11geqrf_batchERN2cl4sycl5queueEPlS7_PPSt7complexIdES7_SB_lS7_SA_lRKSt6vectorINS4_5eventESaISD_EE
libonemkl_lapack_mklcpu.so.0:_ZN6oneapi3mkl6lapack6mklcpu11geqrf_batchERN2cl4sycl5queueEPlS7_PPSt7complexIfES7_SB_lS7_SA_lRKSt6vectorINS4_5eventESaISD_EE
libonemkl_lapack_mklcpu.so.0:_ZN6oneapi3mkl6lapack6mklcpu11geqrf_batchERN2cl4sycl5queueEPlS7_PPdS7_S9_lS7_S8_lRKSt6vectorINS4_5eventESaISB_EE
libonemkl_lapack_mklcpu.so.0:_ZN6oneapi3mkl6lapack6mklcpu11geqrf_batchERN2cl4sycl5queueEPlS7_PPfS7_S9_lS7_S8_lRKSt6vectorINS4_5eventESaISB_EE
libonemkl_lapack_mklcpu.so.0:_ZN6oneapi3mkl6lapack6mklcpu11geqrf_batchERN2cl4sycl5queueEllPSt7complexIdEllS9_llS9_lRKSt6vectorINS4_5eventESaISB_EE
libonemkl_lapack_mklcpu.so.0:_ZN6oneapi3mkl6lapack6mklcpu11geqrf_batchERN2cl4sycl5queueEllPSt7complexIfEllS9_llS9_lRKSt6vectorINS4_5eventESaISB_EE
libonemkl_lapack_mklcpu.so.0:_ZN6oneapi3mkl6lapack6mklcpu11geqrf_batchERN2cl4sycl5queueEllPdllS7_llS7_lRKSt6vectorINS4_5eventESaIS9_EE
libonemkl_lapack_mklcpu.so.0:_ZN6oneapi3mkl6lapack6mklcpu11geqrf_batchERN2cl4sycl5queueEllPfllS7_llS7_lRKSt6vectorINS4_5eventESaIS9_EE
libonemkl_lapack_mklcpu.so.0:_ZN6oneapi3mkl6lapack6mklcpu11geqrf_batchERN2cl4sycl5queueEllRNS4_6bufferISt7complexIdELi1ENS4_6detail17aligned_allocatorIcEEvEEllSE_llSE_l
libonemkl_lapack_mklcpu.so.0:_ZN6oneapi3mkl6lapack6mklcpu11geqrf_batchERN2cl4sycl5queueEllRNS4_6bufferISt7complexIfELi1ENS4_6detail17aligned_allocatorIcEEvEEllSE_llSE_l
libonemkl_lapack_mklcpu.so.0:_ZN6oneapi3mkl6lapack6mklcpu11geqrf_batchERN2cl4sycl5queueEllRNS4_6bufferIdLi1ENS4_6detail17aligned_allocatorIcEEvEEllSC_llSC_l
libonemkl_lapack_mklcpu.so.0:_ZN6oneapi3mkl6lapack6mklcpu11geqrf_batchERN2cl4sycl5queueEllRNS4_6bufferIfLi1ENS4_6detail17aligned_allocatorIcEEvEEllSC_llSC_l
libonemkl_lapack_mklcpu.so.0:_ZN6oneapi3mkl6lapack6mklcpu11getrf_batchERN2cl4sycl5queueEPlS7_PPSt7complexIdES7_PS7_lS7_SA_lRKSt6vectorINS4_5eventESaISE_EE
libonemkl_lapack_mklcpu.so.0:_ZN6oneapi3mkl6lapack6mklcpu11getrf_batchERN2cl4sycl5queueEPlS7_PPSt7complexIfES7_PS7_lS7_SA_lRKSt6vectorINS4_5eventESaISE_EE
libonemkl_lapack_mklcpu.so.0:_ZN6oneapi3mkl6lapack6mklcpu11getrf_batchERN2cl4sycl5queueEPlS7_PPdS7_PS7_lS7_S8_lRKSt6vectorINS4_5eventESaISC_EE
libonemkl_lapack_mklcpu.so.0:_ZN6oneapi3mkl6lapack6mklcpu11getrf_batchERN2cl4sycl5queueEPlS7_PPfS7_PS7_lS7_S8_lRKSt6vectorINS4_5eventESaISC_EE
libonemkl_lapack_mklcpu.so.0:_ZN6oneapi3mkl6lapack6mklcpu11getrf_batchERN2cl4sycl5queueEllPSt7complexIdEllPlllS9_lRKSt6vectorINS4_5eventESaISC_EE
libonemkl_lapack_mklcpu.so.0:_ZN6oneapi3mkl6lapack6mklcpu11getrf_batchERN2cl4sycl5queueEllPSt7complexIfEllPlllS9_lRKSt6vectorINS4_5eventESaISC_EE
libonemkl_lapack_mklcpu.so.0:_ZN6oneapi3mkl6lapack6mklcpu11getrf_batchERN2cl4sycl5queueEllPdllPlllS7_lRKSt6vectorINS4_5eventESaISA_EE
libonemkl_lapack_mklcpu.so.0:_ZN6oneapi3mkl6lapack6mklcpu11getrf_batchERN2cl4sycl5queueEllPfllPlllS7_lRKSt6vectorINS4_5eventESaISA_EE
libonemkl_lapack_mklcpu.so.0:_ZN6oneapi3mkl6lapack6mklcpu11getrf_batchERN2cl4sycl5queueEllRNS4_6bufferISt7complexIdELi1ENS4_6detail17aligned_allocatorIcEEvEEllRNS7_IlLi1ESC_vEEllSE_l
libonemkl_lapack_mklcpu.so.0:_ZN6oneapi3mkl6lapack6mklcpu11getrf_batchERN2cl4sycl5queueEllRNS4_6bufferISt7complexIfELi1ENS4_6detail17aligned_allocatorIcEEvEEllRNS7_IlLi1ESC_vEEllSE_l
libonemkl_lapack_mklcpu.so.0:_ZN6oneapi3mkl6lapack6mklcpu11getrf_batchERN2cl4sycl5queueEllRNS4_6bufferIdLi1ENS4_6detail17aligned_allocatorIcEEvEEllRNS7_IlLi1ESA_vEEllSC_l
libonemkl_lapack_mklcpu.so.0:_ZN6oneapi3mkl6lapack6mklcpu11getrf_batchERN2cl4sycl5queueEllRNS4_6bufferIfLi1ENS4_6detail17aligned_allocatorIcEEvEEllRNS7_IlLi1ESA_vEEllSC_l
libonemkl_lapack_mklcpu.so.0:_ZN6oneapi3mkl6lapack6mklcpu11getri_batchERN2cl4sycl5queueEPlPPSt7complexIdES7_PS7_lS7_SA_lRKSt6vectorINS4_5eventESaISE_EE
libonemkl_lapack_mklcpu.so.0:_ZN6oneapi3mkl6lapack6mklcpu11getri_batchERN2cl4sycl5queueEPlPPSt7complexIfES7_PS7_lS7_SA_lRKSt6vectorINS4_5eventESaISE_EE
libonemkl_lapack_mklcpu.so.0:_ZN6oneapi3mkl6lapack6mklcpu11getri_batchERN2cl4sycl5queueEPlPPdS7_PS7_lS7_S8_lRKSt6vectorINS4_5eventESaISC_EE
libonemkl_lapack_mklcpu.so.0:_ZN6oneapi3mkl6lapack6mklcpu11getri_batchERN2cl4sycl5queueEPlPPfS7_PS7_lS7_S8_lRKSt6vectorINS4_5eventESaISC_EE
libonemkl_lapack_mklcpu.so.0:_ZN6oneapi3mkl6lapack6mklcpu11getri_batchERN2cl4sycl5queueElPSt7complexIdEllPlllS9_lRKSt6vectorINS4_5eventESaISC_EE
libonemkl_lapack_mklcpu.so.0:_ZN6oneapi3mkl6lapack6mklcpu11getri_batchERN2cl4sycl5queueElPSt7complexIfEllPlllS9_lRKSt6vectorINS4_5eventESaISC_EE
libonemkl_lapack_mklcpu.so.0:_ZN6oneapi3mkl6lapack6mklcpu11getri_batchERN2cl4sycl5queueElPdllPlllS7_lRKSt6vectorINS4_5eventESaISA_EE
libonemkl_lapack_mklcpu.so.0:_ZN6oneapi3mkl6lapack6mklcpu11getri_batchERN2cl4sycl5queueElPfllPlllS7_lRKSt6vectorINS4_5eventESaISA_EE
libonemkl_lapack_mklcpu.so.0:_ZN6oneapi3mkl6lapack6mklcpu11getri_batchERN2cl4sycl5queueElRNS4_6bufferISt7complexIdELi1ENS4_6detail17aligned_allocatorIcEEvEEllRNS7_IlLi1ESC_vEEllSE_l
libonemkl_lapack_mklcpu.so.0:_ZN6oneapi3mkl6lapack6mklcpu11getri_batchERN2cl4sycl5queueElRNS4_6bufferISt7complexIfELi1ENS4_6detail17aligned_allocatorIcEEvEEllRNS7_IlLi1ESC_vEEllSE_l
libonemkl_lapack_mklcpu.so.0:_ZN6oneapi3mkl6lapack6mklcpu11getri_batchERN2cl4sycl5queueElRNS4_6bufferIdLi1ENS4_6detail17aligned_allocatorIcEEvEEllRNS7_IlLi1ESA_vEEllSC_l
libonemkl_lapack_mklcpu.so.0:_ZN6oneapi3mkl6lapack6mklcpu11getri_batchERN2cl4sycl5queueElRNS4_6bufferIfLi1ENS4_6detail17aligned_allocatorIcEEvEEllRNS7_IlLi1ESA_vEEllSC_l
libonemkl_lapack_mklcpu.so.0:_ZN6oneapi3mkl6lapack6mklcpu11getrs_batchERN2cl4sycl5queueENS0_9transposeEllPSt7complexIdEllPllSA_lllSA_lRKSt6vectorINS4_5eventESaISD_EE
libonemkl_lapack_mklcpu.so.0:_ZN6oneapi3mkl6lapack6mklcpu11getrs_batchERN2cl4sycl5queueENS0_9transposeEllPSt7complexIfEllPllSA_lllSA_lRKSt6vectorINS4_5eventESaISD_EE
libonemkl_lapack_mklcpu.so.0:_ZN6oneapi3mkl6lapack6mklcpu11getrs_batchERN2cl4sycl5queueENS0_9transposeEllPdllPllS8_lllS8_lRKSt6vectorINS4_5eventESaISB_EE
libonemkl_lapack_mklcpu.so.0:_ZN6oneapi3mkl6lapack6mklcpu11getrs_batchERN2cl4sycl5queueENS0_9transposeEllPfllPllS8_lllS8_lRKSt6vectorINS4_5eventESaISB_EE
libonemkl_lapack_mklcpu.so.0:_ZN6oneapi3mkl6lapack6mklcpu11getrs_batchERN2cl4sycl5queueENS0_9transposeEllRNS4_6bufferISt7complexIdELi1ENS4_6detail17aligned_allocatorIcEEvEEllRNS8_IlLi1ESD_vEElSF_lllSF_l
libonemkl_lapack_mklcpu.so.0:_ZN6oneapi3mkl6lapack6mklcpu11getrs_batchERN2cl4sycl5queueENS0_9transposeEllRNS4_6bufferISt7complexIfELi1ENS4_6detail17aligned_allocatorIcEEvEEllRNS8_IlLi1ESD_vEElSF_lllSF_l
libonemkl_lapack_mklcpu.so.0:_ZN6oneapi3mkl6lapack6mklcpu11getrs_batchERN2cl4sycl5queueENS0_9transposeEllRNS4_6bufferIdLi1ENS4_6detail17aligned_allocatorIcEEvEEllRNS8_IlLi1ESB_vEElSD_lllSD_l
libonemkl_lapack_mklcpu.so.0:_ZN6oneapi3mkl6lapack6mklcpu11getrs_batchERN2cl4sycl5queueENS0_9transposeEllRNS4_6bufferIfLi1ENS4_6detail17aligned_allocatorIcEEvEEllRNS8_IlLi1ESB_vEElSD_lllSD_l
libonemkl_lapack_mklcpu.so.0:_ZN6oneapi3mkl6lapack6mklcpu11getrs_batchERN2cl4sycl5queueEPNS0_9transposeEPlS9_PPSt7complexIdES9_PS9_SD_S9_lS9_SC_lRKSt6vectorINS4_5eventESaISG_EE
libonemkl_lapack_mklcpu.so.0:_ZN6oneapi3mkl6lapack6mklcpu11getrs_batchERN2cl4sycl5queueEPNS0_9transposeEPlS9_PPSt7complexIfES9_PS9_SD_S9_lS9_SC_lRKSt6vectorINS4_5eventESaISG_EE
libonemkl_lapack_mklcpu.so.0:_ZN6oneapi3mkl6lapack6mklcpu11getrs_batchERN2cl4sycl5queueEPNS0_9transposeEPlS9_PPdS9_PS9_SB_S9_lS9_SA_lRKSt6vectorINS4_5eventESaISE_EE
libonemkl_lapack_mklcpu.so.0:_ZN6oneapi3mkl6lapack6mklcpu11getrs_batchERN2cl4sycl5queueEPNS0_9transposeEPlS9_PPfS9_PS9_SB_S9_lS9_SA_lRKSt6vectorINS4_5eventESaISE_EE
libonemkl_lapack_mklcpu.so.0:_ZN6oneapi3mkl6lapack6mklcpu11orgqr_batchERN2cl4sycl5queueEPlS7_S7_PPdS7_S9_lS7_S8_lRKSt6vectorINS4_5eventESaISB_EE
libonemkl_lapack_mklcpu.so.0:_ZN6oneapi3mkl6lapack6mklcpu11orgqr_batchERN2cl4sycl5queueEPlS7_S7_PPfS7_S9_lS7_S8_lRKSt6vectorINS4_5eventESaISB_EE
libonemkl_lapack_mklcpu.so.0:_ZN6oneapi3mkl6lapack6mklcpu11orgqr_batchERN2cl4sycl5queueElllPdllS7_llS7_lRKSt6vectorINS4_5eventESaIS9_EE
libonemkl_lapack_mklcpu.so.0:_ZN6oneapi3mkl6lapack6mklcpu11orgqr_batchERN2cl4sycl5queueElllPfllS7_llS7_lRKSt6vectorINS4_5eventESaIS9_EE
libonemkl_lapack_mklcpu.so.0:_ZN6oneapi3mkl6lapack6mklcpu11orgqr_batchERN2cl4sycl5queueElllRNS4_6bufferIdLi1ENS4_6detail17aligned_allocatorIcEEvEEllSC_llSC_l
libonemkl_lapack_mklcpu.so.0:_ZN6oneapi3mkl6lapack6mklcpu11orgqr_batchERN2cl4sycl5queueElllRNS4_6bufferIfLi1ENS4_6detail17aligned_allocatorIcEEvEEllSC_llSC_l
libonemkl_lapack_mklcpu.so.0:_ZN6oneapi3mkl6lapack6mklcpu11potrf_batchERN2cl4sycl5queueENS0_4uploElPSt7complexIdElllSA_lRKSt6vectorINS4_5eventESaISC_EE
libonemkl_lapack_mklcpu.so.0:_ZN6oneapi3mkl6lapack6mklcpu11potrf_batchERN2cl4sycl5queueENS0_4uploElPSt7complexIfElllSA_lRKSt6vectorINS4_5eventESaISC_EE
libonemkl_lapack_mklcpu.so.0:_ZN6oneapi3mkl6lapack6mklcpu11potrf_batchERN2cl4sycl5queueENS0_4uploElPdlllS8_lRKSt6vectorINS4_5eventESaISA_EE
libonemkl_lapack_mklcpu.so.0:_ZN6oneapi3mkl6lapack6mklcpu11potrf_batchERN2cl4sycl5queueENS0_4uploElPflllS8_lRKSt6vectorINS4_5eventESaISA_EE
libonemkl_lapack_mklcpu.so.0:_ZN6oneapi3mkl6lapack6mklcpu11potrf_batchERN2cl4sycl5queueENS0_4uploElRNS4_6bufferISt7complexIdELi1ENS4_6detail17aligned_allocatorIcEEvEElllSF_l
libonemkl_lapack_mklcpu.so.0:_ZN6oneapi3mkl6lapack6mklcpu11potrf_batchERN2cl4sycl5queueENS0_4uploElRNS4_6bufferISt7complexIfELi1ENS4_6detail17aligned_allocatorIcEEvEElllSF_l
libonemkl_lapack_mklcpu.so.0:_ZN6oneapi3mkl6lapack6mklcpu11potrf_batchERN2cl4sycl5queueENS0_4uploElRNS4_6bufferIdLi1ENS4_6detail17aligned_allocatorIcEEvEElllSD_l
libonemkl_lapack_mklcpu.so.0:_ZN6oneapi3mkl6lapack6mklcpu11potrf_batchERN2cl4sycl5queueENS0_4uploElRNS4_6bufferIfLi1ENS4_6detail17aligned_allocatorIcEEvEElllSD_l
libonemkl_lapack_mklcpu.so.0:_ZN6oneapi3mkl6lapack6mklcpu11potrf_batchERN2cl4sycl5queueEPNS0_4uploEPlPPSt7complexIdES9_lS9_SC_lRKSt6vectorINS4_5eventESaISF_EE
libonemkl_lapack_mklcpu.so.0:_ZN6oneapi3mkl6lapack6mklcpu11potrf_batchERN2cl4sycl5queueEPNS0_4uploEPlPPSt7complexIfES9_lS9_SC_lRKSt6vectorINS4_5eventESaISF_EE
libonemkl_lapack_mklcpu.so.0:_ZN6oneapi3mkl6lapack6mklcpu11potrf_batchERN2cl4sycl5queueEPNS0_4uploEPlPPdS9_lS9_SA_lRKSt6vectorINS4_5eventESaISD_EE
libonemkl_lapack_mklcpu.so.0:_ZN6oneapi3mkl6lapack6mklcpu11potrf_batchERN2cl4sycl5queueEPNS0_4uploEPlPPfS9_lS9_SA_lRKSt6vectorINS4_5eventESaISD_EE
libonemkl_lapack_mklcpu.so.0:_ZN6oneapi3mkl6lapack6mklcpu11potrs_batchERN2cl4sycl5queueENS0_4uploEllPSt7complexIdEllSA_lllSA_lRKSt6vectorINS4_5eventESaISC_EE
libonemkl_lapack_mklcpu.so.0:_ZN6oneapi3mkl6lapack6mklcpu11potrs_batchERN2cl4sycl5queueENS0_4uploEllPSt7complexIfEllSA_lllSA_lRKSt6vectorINS4_5eventESaISC_EE
libonemkl_lapack_mklcpu.so.0:_ZN6oneapi3mkl6lapack6mklcpu11potrs_batchERN2cl4sycl5queueENS0_4uploEllPdllS8_lllS8_lRKSt6vectorINS4_5eventESaISA_EE
libonemkl_lapack_mklcpu.so.0:_ZN6oneapi3mkl6lapack6mklcpu11potrs_batchERN2cl4sycl5queueENS0_4uploEllPfllS8_lllS8_lRKSt6vectorINS4_5eventESaISA_EE
libonemkl_lapack_mklcpu.so.0:_ZN6oneapi3mkl6lapack6mklcpu11potrs_batchERN2cl4sycl5queueENS0_4uploEllRNS4_6bufferISt7complexIdELi1ENS4_6detail17aligned_allocatorIcEEvEEllSF_lllSF_l
libonemkl_lapack_mklcpu.so.0:_ZN6oneapi3mkl6lapack6mklcpu11potrs_batchERN2cl4sycl5queueENS0_4uploEllRNS4_6bufferISt7complexIfELi1ENS4_6detail17aligned_allocatorIcEEvEEllSF_lllSF_l
libonemkl_lapack_mklcpu.so.0:_ZN6oneapi3mkl6lapack6mklcpu11potrs_batchERN2cl4sycl5queueENS0_4uploEllRNS4_6bufferIdLi1ENS4_6detail17aligned_allocatorIcEEvEEllSD_lllSD_l
libonemkl_lapack_mklcpu.so.0:_ZN6oneapi3mkl6lapack6mklcpu11potrs_batchERN2cl4sycl5queueENS0_4uploEllRNS4_6bufferIfLi1ENS4_6detail17aligned_allocatorIcEEvEEllSD_lllSD_l
libonemkl_lapack_mklcpu.so.0:_ZN6oneapi3mkl6lapack6mklcpu11potrs_batchERN2cl4sycl5queueEPNS0_4uploEPlS9_PPSt7complexIdES9_SD_S9_lS9_SC_lRKSt6vectorINS4_5eventESaISF_EE
libonemkl_lapack_mklcpu.so.0:_ZN6oneapi3mkl6lapack6mklcpu11potrs_batchERN2cl4sycl5queueEPNS0_4uploEPlS9_PPSt7complexIfES9_SD_S9_lS9_SC_lRKSt6vectorINS4_5eventESaISF_EE
libonemkl_lapack_mklcpu.so.0:_ZN6oneapi3mkl6lapack6mklcpu11potrs_batchERN2cl4sycl5queueEPNS0_4uploEPlS9_PPdS9_SB_S9_lS9_SA_lRKSt6vectorINS4_5eventESaISD_EE
libonemkl_lapack_mklcpu.so.0:_ZN6oneapi3mkl6lapack6mklcpu11potrs_batchERN2cl4sycl5queueEPNS0_4uploEPlS9_PPfS9_SB_S9_lS9_SA_lRKSt6vectorINS4_5eventESaISD_EE
libonemkl_lapack_mklcpu.so.0:_ZN6oneapi3mkl6lapack6mklcpu11ungqr_batchERN2cl4sycl5queueEPlS7_S7_PPSt7complexIdES7_SB_lS7_SA_lRKSt6vectorINS4_5eventESaISD_EE
libonemkl_lapack_mklcpu.so.0:_ZN6oneapi3mkl6lapack6mklcpu11ungqr_batchERN2cl4sycl5queueEPlS7_S7_PPSt7complexIfES7_SB_lS7_SA_lRKSt6vectorINS4_5eventESaISD_EE
libonemkl_lapack_mklcpu.so.0:_ZN6oneapi3mkl6lapack6mklcpu11ungqr_batchERN2cl4sycl5queueElllPSt7complexIdEllS9_llS9_lRKSt6vectorINS4_5eventESaISB_EE
libonemkl_lapack_mklcpu.so.0:_ZN6oneapi3mkl6lapack6mklcpu11ungqr_batchERN2cl4sycl5queueElllPSt7complexIfEllS9_llS9_lRKSt6vectorINS4_5eventESaISB_EE
libonemkl_lapack_mklcpu.so.0:_ZN6oneapi3mkl6lapack6mklcpu11ungqr_batchERN2cl4sycl5queueElllRNS4_6bufferISt7complexIdELi1ENS4_6detail17aligned_allocatorIcEEvEEllSE_llSE_l
libonemkl_lapack_mklcpu.so.0:_ZN6oneapi3mkl6lapack6mklcpu11ungqr_batchERN2cl4sycl5queueElllRNS4_6bufferISt7complexIfELi1ENS4_6detail17aligned_allocatorIcEEvEEllSE_llSE_l
libonemkl_lapack_mklcpu.so.0:_ZN6oneapi3mkl6lapack6mklcpu21gebrd_scratchpad_sizeISt7complexIdELPv0EEElRN2cl4sycl5queueElll
libonemkl_lapack_mklcpu.so.0:_ZN6oneapi3mkl6lapack6mklcpu21gebrd_scratchpad_sizeISt7complexIfELPv0EEElRN2cl4sycl5queueElll
libonemkl_lapack_mklcpu.so.0:_ZN6oneapi3mkl6lapack6mklcpu21gebrd_scratchpad_sizeIdLPv0EEElRN2cl4sycl5queueElll
libonemkl_lapack_mklcpu.so.0:_ZN6oneapi3mkl6lapack6mklcpu21gebrd_scratchpad_sizeIfLPv0EEElRN2cl4sycl5queueElll
libonemkl_lapack_mklcpu.so.0:_ZN6oneapi3mkl6lapack6mklcpu21geqrf_scratchpad_sizeISt7complexIdELPv0EEElRN2cl4sycl5queueElll
libonemkl_lapack_mklcpu.so.0:_ZN6oneapi3mkl6lapack6mklcpu21geqrf_scratchpad_sizeISt7complexIfELPv0EEElRN2cl4sycl5queueElll
libonemkl_lapack_mklcpu.so.0:_ZN6oneapi3mkl6lapack6mklcpu21geqrf_scratchpad_sizeIdLPv0EEElRN2cl4sycl5queueElll
libonemkl_lapack_mklcpu.so.0:_ZN6oneapi3mkl6lapack6mklcpu21geqrf_scratchpad_sizeIfLPv0EEElRN2cl4sycl5queueElll
libonemkl_lapack_mklcpu.so.0:_ZN6oneapi3mkl6lapack6mklcpu21gerqf_scratchpad_sizeISt7complexIdELPv0EEElRN2cl4sycl5queueElll
libonemkl_lapack_mklcpu.so.0:_ZN6oneapi3mkl6lapack6mklcpu21gerqf_scratchpad_sizeISt7complexIfELPv0EEElRN2cl4sycl5queueElll
libonemkl_lapack_mklcpu.so.0:_ZN6oneapi3mkl6lapack6mklcpu21gerqf_scratchpad_sizeIdLPv0EEElRN2cl4sycl5queueElll
libonemkl_lapack_mklcpu.so.0:_ZN6oneapi3mkl6lapack6mklcpu21gerqf_scratchpad_sizeIfLPv0EEElRN2cl4sycl5queueElll
libonemkl_lapack_mklcpu.so.0:_ZN6oneapi3mkl6lapack6mklcpu21gesvd_scratchpad_sizeISt7complexIdELPv0EEElRN2cl4sycl5queueENS0_6jobsvdESB_lllll
libonemkl_lapack_mklcpu.so.0:_ZN6oneapi3mkl6lapack6mklcpu21gesvd_scratchpad_sizeISt7complexIfELPv0EEElRN2cl4sycl5queueENS0_6jobsvdESB_lllll
libonemkl_lapack_mklcpu.so.0:_ZN6oneapi3mkl6lapack6mklcpu21gesvd_scratchpad_sizeIdLPv0EEElRN2cl4sycl5queueENS0_6jobsvdES9_lllll
libonemkl_lapack_mklcpu.so.0:_ZN6oneapi3mkl6lapack6mklcpu21gesvd_scratchpad_sizeIfLPv0EEElRN2cl4sycl5queueENS0_6jobsvdES9_lllll
libonemkl_lapack_mklcpu.so.0:_ZN6oneapi3mkl6lapack6mklcpu21getrf_scratchpad_sizeISt7complexIdELPv0EEElRN2cl4sycl5queueElll
libonemkl_lapack_mklcpu.so.0:_ZN6oneapi3mkl6lapack6mklcpu21getrf_scratchpad_sizeISt7complexIfELPv0EEElRN2cl4sycl5queueElll
libonemkl_lapack_mklcpu.so.0:_ZN6oneapi3mkl6lapack6mklcpu21getrf_scratchpad_sizeIdLPv0EEElRN2cl4sycl5queueElll
libonemkl_lapack_mklcpu.so.0:_ZN6oneapi3mkl6lapack6mklcpu21getrf_scratchpad_sizeIfLPv0EEElRN2cl4sycl5queueElll
libonemkl_lapack_mklcpu.so.0:_ZN6oneapi3mkl6lapack6mklcpu21getri_scratchpad_sizeISt7complexIdELPv0EEElRN2cl4sycl5queueEll
libonemkl_lapack_mklcpu.so.0:_ZN6oneapi3mkl6lapack6mklcpu21getri_scratchpad_sizeISt7complexIfELPv0EEElRN2cl4sycl5queueEll
libonemkl_lapack_mklcpu.so.0:_ZN6oneapi3mkl6lapack6mklcpu21getri_scratchpad_sizeIdLPv0EEElRN2cl4sycl5queueEll
libonemkl_lapack_mklcpu.so.0:_ZN6oneapi3mkl6lapack6mklcpu21getri_scratchpad_sizeIfLPv0EEElRN2cl4sycl5queueEll
libonemkl_lapack_mklcpu.so.0:_ZN6oneapi3mkl6lapack6mklcpu21getrs_scratchpad_sizeISt7complexIdELPv0EEElRN2cl4sycl5queueENS0_9transposeEllll
libonemkl_lapack_mklcpu.so.0:_ZN6oneapi3mkl6lapack6mklcpu21getrs_scratchpad_sizeISt7complexIfELPv0EEElRN2cl4sycl5queueENS0_9transposeEllll
libonemkl_lapack_mklcpu.so.0:_ZN6oneapi3mkl6lapack6mklcpu21getrs_scratchpad_sizeIdLPv0EEElRN2cl4sycl5queueENS0_9transposeEllll
libonemkl_lapack_mklcpu.so.0:_ZN6oneapi3mkl6lapack6mklcpu21getrs_scratchpad_sizeIfLPv0EEElRN2cl4sycl5queueENS0_9transposeEllll
libonemkl_lapack_mklcpu.so.0:_ZN6oneapi3mkl6lapack6mklcpu21heevd_scratchpad_sizeISt7complexIdELPv0EEElRN2cl4sycl5queueENS0_3jobENS0_4uploEll
libonemkl_lapack_mklcpu.so.0:_ZN6oneapi3mkl6lapack6mklcpu21heevd_scratchpad_sizeISt7complexIfELPv0EEElRN2cl4sycl5queueENS0_3jobENS0_4uploEll
libonemkl_lapack_mklcpu.so.0:_ZN6oneapi3mkl6lapack6mklcpu21hegvd_scratchpad_sizeISt7complexIdELPv0EEElRN2cl4sycl5queueElNS0_3jobENS0_4uploElll
libonemkl_lapack_mklcpu.so.0:_ZN6oneapi3mkl6lapack6mklcpu21hegvd_scratchpad_sizeISt7complexIfELPv0EEElRN2cl4sycl5queueElNS0_3jobENS0_4uploElll
libonemkl_lapack_mklcpu.so.0:_ZN6oneapi3mkl6lapack6mklcpu21hetrd_scratchpad_sizeISt7complexIdELPv0EEElRN2cl4sycl5queueENS0_4uploEll
libonemkl_lapack_mklcpu.so.0:_ZN6oneapi3mkl6lapack6mklcpu21hetrd_scratchpad_sizeISt7complexIfELPv0EEElRN2cl4sycl5queueENS0_4uploEll
libonemkl_lapack_mklcpu.so.0:_ZN6oneapi3mkl6lapack6mklcpu21hetrf_scratchpad_sizeISt7complexIdELPv0EEElRN2cl4sycl5queueENS0_4uploEll
libonemkl_lapack_mklcpu.so.0:_ZN6oneapi3mkl6lapack6mklcpu21hetrf_scratchpad_sizeISt7complexIfELPv0EEElRN2cl4sycl5queueENS0_4uploEll
libonemkl_lapack_mklcpu.so.0:_ZN6oneapi3mkl6lapack6mklcpu21orgbr_scratchpad_sizeIdLPv0EEElRN2cl4sycl5queueENS0_8generateEllll
libonemkl_lapack_mklcpu.so.0:_ZN6oneapi3mkl6lapack6mklcpu21orgbr_scratchpad_sizeIfLPv0EEElRN2cl4sycl5queueENS0_8generateEllll
libonemkl_lapack_mklcpu.so.0:_ZN6oneapi3mkl6lapack6mklcpu21orgqr_scratchpad_sizeIdLPv0EEElRN2cl4sycl5queueEllll
libonemkl_lapack_mklcpu.so.0:_ZN6oneapi3mkl6lapack6mklcpu21orgqr_scratchpad_sizeIfLPv0EEElRN2cl4sycl5queueEllll
libonemkl_lapack_mklcpu.so.0:_ZN6oneapi3mkl6lapack6mklcpu21orgtr_scratchpad_sizeIdLPv0EEElRN2cl4sycl5queueENS0_4uploEll
libonemkl_lapack_mklcpu.so.0:_ZN6oneapi3mkl6lapack6mklcpu21orgtr_scratchpad_sizeIfLPv0EEElRN2cl4sycl5queueENS0_4uploEll
libonemkl_lapack_mklcpu.so.0:_ZN6oneapi3mkl6lapack6mklcpu21ormqr_scratchpad_sizeIdLPv0EEElRN2cl4sycl5queueENS0_4sideENS0_9transposeElllll
libonemkl_lapack_mklcpu.so.0:_ZN6oneapi3mkl6lapack6mklcpu21ormqr_scratchpad_sizeIfLPv0EEElRN2cl4sycl5queueENS0_4sideENS0_9transposeElllll
libonemkl_lapack_mklcpu.so.0:_ZN6oneapi3mkl6lapack6mklcpu21ormrq_scratchpad_sizeIdLPv0EEElRN2cl4sycl5queueENS0_4sideENS0_9transposeElllll
libonemkl_lapack_mklcpu.so.0:_ZN6oneapi3mkl6lapack6mklcpu21ormrq_scratchpad_sizeIfLPv0EEElRN2cl4sycl5queueENS0_4sideENS0_9transposeElllll
libonemkl_lapack_mklcpu.so.0:_ZN6oneapi3mkl6lapack6mklcpu21ormtr_scratchpad_sizeIdLPv0EEElRN2cl4sycl5queueENS0_4sideENS0_4uploENS0_9transposeEllll
libonemkl_lapack_mklcpu.so.0:_ZN6oneapi3mkl6lapack6mklcpu21ormtr_scratchpad_sizeIfLPv0EEElRN2cl4sycl5queueENS0_4sideENS0_4uploENS0_9transposeEllll
libonemkl_lapack_mklcpu.so.0:_ZN6oneapi3mkl6lapack6mklcpu21potrf_scratchpad_sizeISt7complexIdELPv0EEElRN2cl4sycl5queueENS0_4uploEll
libonemkl_lapack_mklcpu.so.0:_ZN6oneapi3mkl6lapack6mklcpu21potrf_scratchpad_sizeISt7complexIfELPv0EEElRN2cl4sycl5queueENS0_4uploEll
libonemkl_lapack_mklcpu.so.0:_ZN6oneapi3mkl6lapack6mklcpu21potrf_scratchpad_sizeIdLPv0EEElRN2cl4sycl5queueENS0_4uploEll
libonemkl_lapack_mklcpu.so.0:_ZN6oneapi3mkl6lapack6mklcpu21potrf_scratchpad_sizeIfLPv0EEElRN2cl4sycl5queueENS0_4uploEll
libonemkl_lapack_mklcpu.so.0:_ZN6oneapi3mkl6lapack6mklcpu21potri_scratchpad_sizeISt7complexIdELPv0EEElRN2cl4sycl5queueENS0_4uploEll
libonemkl_lapack_mklcpu.so.0:_ZN6oneapi3mkl6lapack6mklcpu21potri_scratchpad_sizeISt7complexIfELPv0EEElRN2cl4sycl5queueENS0_4uploEll
libonemkl_lapack_mklcpu.so.0:_ZN6oneapi3mkl6lapack6mklcpu21potri_scratchpad_sizeIdLPv0EEElRN2cl4sycl5queueENS0_4uploEll
libonemkl_lapack_mklcpu.so.0:_ZN6oneapi3mkl6lapack6mklcpu21potri_scratchpad_sizeIfLPv0EEElRN2cl4sycl5queueENS0_4uploEll
libonemkl_lapack_mklcpu.so.0:_ZN6oneapi3mkl6lapack6mklcpu21potrs_scratchpad_sizeISt7complexIdELPv0EEElRN2cl4sycl5queueENS0_4uploEllll
libonemkl_lapack_mklcpu.so.0:_ZN6oneapi3mkl6lapack6mklcpu21potrs_scratchpad_sizeISt7complexIfELPv0EEElRN2cl4sycl5queueENS0_4uploEllll
libonemkl_lapack_mklcpu.so.0:_ZN6oneapi3mkl6lapack6mklcpu21potrs_scratchpad_sizeIdLPv0EEElRN2cl4sycl5queueENS0_4uploEllll
libonemkl_lapack_mklcpu.so.0:_ZN6oneapi3mkl6lapack6mklcpu21potrs_scratchpad_sizeIfLPv0EEElRN2cl4sycl5queueENS0_4uploEllll
libonemkl_lapack_mklcpu.so.0:_ZN6oneapi3mkl6lapack6mklcpu21syevd_scratchpad_sizeIdLPv0EEElRN2cl4sycl5queueENS0_3jobENS0_4uploEll
libonemkl_lapack_mklcpu.so.0:_ZN6oneapi3mkl6lapack6mklcpu21syevd_scratchpad_sizeIfLPv0EEElRN2cl4sycl5queueENS0_3jobENS0_4uploEll
libonemkl_lapack_mklcpu.so.0:_ZN6oneapi3mkl6lapack6mklcpu21sygvd_scratchpad_sizeIdLPv0EEElRN2cl4sycl5queueElNS0_3jobENS0_4uploElll
libonemkl_lapack_mklcpu.so.0:_ZN6oneapi3mkl6lapack6mklcpu21sygvd_scratchpad_sizeIfLPv0EEElRN2cl4sycl5queueElNS0_3jobENS0_4uploElll
libonemkl_lapack_mklcpu.so.0:_ZN6oneapi3mkl6lapack6mklcpu21sytrd_scratchpad_sizeIdLPv0EEElRN2cl4sycl5queueENS0_4uploEll
libonemkl_lapack_mklcpu.so.0:_ZN6oneapi3mkl6lapack6mklcpu21sytrd_scratchpad_sizeIfLPv0EEElRN2cl4sycl5queueENS0_4uploEll
libonemkl_lapack_mklcpu.so.0:_ZN6oneapi3mkl6lapack6mklcpu21sytrf_scratchpad_sizeISt7complexIdELPv0EEElRN2cl4sycl5queueENS0_4uploEll
libonemkl_lapack_mklcpu.so.0:_ZN6oneapi3mkl6lapack6mklcpu21sytrf_scratchpad_sizeISt7complexIfELPv0EEElRN2cl4sycl5queueENS0_4uploEll
libonemkl_lapack_mklcpu.so.0:_ZN6oneapi3mkl6lapack6mklcpu21sytrf_scratchpad_sizeIdLPv0EEElRN2cl4sycl5queueENS0_4uploEll
libonemkl_lapack_mklcpu.so.0:_ZN6oneapi3mkl6lapack6mklcpu21sytrf_scratchpad_sizeIfLPv0EEElRN2cl4sycl5queueENS0_4uploEll
libonemkl_lapack_mklcpu.so.0:_ZN6oneapi3mkl6lapack6mklcpu21trtrs_scratchpad_sizeISt7complexIdELPv0EEElRN2cl4sycl5queueENS0_4uploENS0_9transposeENS0_4diagEllll
libonemkl_lapack_mklcpu.so.0:_ZN6oneapi3mkl6lapack6mklcpu21trtrs_scratchpad_sizeISt7complexIfELPv0EEElRN2cl4sycl5queueENS0_4uploENS0_9transposeENS0_4diagEllll
libonemkl_lapack_mklcpu.so.0:_ZN6oneapi3mkl6lapack6mklcpu21trtrs_scratchpad_sizeIdLPv0EEElRN2cl4sycl5queueENS0_4uploENS0_9transposeENS0_4diagEllll
libonemkl_lapack_mklcpu.so.0:_ZN6oneapi3mkl6lapack6mklcpu21trtrs_scratchpad_sizeIfLPv0EEElRN2cl4sycl5queueENS0_4uploENS0_9transposeENS0_4diagEllll
libonemkl_lapack_mklcpu.so.0:_ZN6oneapi3mkl6lapack6mklcpu21ungbr_scratchpad_sizeISt7complexIdELPv0EEElRN2cl4sycl5queueENS0_8generateEllll
libonemkl_lapack_mklcpu.so.0:_ZN6oneapi3mkl6lapack6mklcpu21ungbr_scratchpad_sizeISt7complexIfELPv0EEElRN2cl4sycl5queueENS0_8generateEllll
libonemkl_lapack_mklcpu.so.0:_ZN6oneapi3mkl6lapack6mklcpu21ungqr_scratchpad_sizeISt7complexIdELPv0EEElRN2cl4sycl5queueEllll
libonemkl_lapack_mklcpu.so.0:_ZN6oneapi3mkl6lapack6mklcpu21ungqr_scratchpad_sizeISt7complexIfELPv0EEElRN2cl4sycl5queueEllll
libonemkl_lapack_mklcpu.so.0:_ZN6oneapi3mkl6lapack6mklcpu21ungtr_scratchpad_sizeISt7complexIdELPv0EEElRN2cl4sycl5queueENS0_4uploEll
libonemkl_lapack_mklcpu.so.0:_ZN6oneapi3mkl6lapack6mklcpu21ungtr_scratchpad_sizeISt7complexIfELPv0EEElRN2cl4sycl5queueENS0_4uploEll
libonemkl_lapack_mklcpu.so.0:_ZN6oneapi3mkl6lapack6mklcpu21unmqr_scratchpad_sizeISt7complexIdELPv0EEElRN2cl4sycl5queueENS0_4sideENS0_9transposeElllll
libonemkl_lapack_mklcpu.so.0:_ZN6oneapi3mkl6lapack6mklcpu21unmqr_scratchpad_sizeISt7complexIfELPv0EEElRN2cl4sycl5queueENS0_4sideENS0_9transposeElllll
libonemkl_lapack_mklcpu.so.0:_ZN6oneapi3mkl6lapack6mklcpu21unmrq_scratchpad_sizeISt7complexIdELPv0EEElRN2cl4sycl5queueENS0_4sideENS0_9transposeElllll
libonemkl_lapack_mklcpu.so.0:_ZN6oneapi3mkl6lapack6mklcpu21unmrq_scratchpad_sizeISt7complexIfELPv0EEElRN2cl4sycl5queueENS0_4sideENS0_9transposeElllll
libonemkl_lapack_mklcpu.so.0:_ZN6oneapi3mkl6lapack6mklcpu21unmtr_scratchpad_sizeISt7complexIdELPv0EEElRN2cl4sycl5queueENS0_4sideENS0_4uploENS0_9transposeEllll
libonemkl_lapack_mklcpu.so.0:_ZN6oneapi3mkl6lapack6mklcpu21unmtr_scratchpad_sizeISt7complexIfELPv0EEElRN2cl4sycl5queueENS0_4sideENS0_4uploENS0_9transposeEllll
libonemkl_lapack_mklcpu.so.0:_ZN6oneapi3mkl6lapack6mklcpu27geqrf_batch_scratchpad_sizeISt7complexIdELPv0EEElRN2cl4sycl5queueEPlSB_SB_lSB_
libonemkl_lapack_mklcpu.so.0:_ZN6oneapi3mkl6lapack6mklcpu27geqrf_batch_scratchpad_sizeISt7complexIdELPv0EEElRN2cl4sycl5queueEllllll
libonemkl_lapack_mklcpu.so.0:_ZN6oneapi3mkl6lapack6mklcpu27geqrf_batch_scratchpad_sizeISt7complexIfELPv0EEElRN2cl4sycl5queueEPlSB_SB_lSB_
libonemkl_lapack_mklcpu.so.0:_ZN6oneapi3mkl6lapack6mklcpu27geqrf_batch_scratchpad_sizeISt7complexIfELPv0EEElRN2cl4sycl5queueEllllll
libonemkl_lapack_mklcpu.so.0:_ZN6oneapi3mkl6lapack6mklcpu27geqrf_batch_scratchpad_sizeIdLPv0EEElRN2cl4sycl5queueEPlS9_S9_lS9_
libonemkl_lapack_mklcpu.so.0:_ZN6oneapi3mkl6lapack6mklcpu27geqrf_batch_scratchpad_sizeIdLPv0EEElRN2cl4sycl5queueEllllll
libonemkl_lapack_mklcpu.so.0:_ZN6oneapi3mkl6lapack6mklcpu27geqrf_batch_scratchpad_sizeIfLPv0EEElRN2cl4sycl5queueEPlS9_S9_lS9_
libonemkl_lapack_mklcpu.so.0:_ZN6oneapi3mkl6lapack6mklcpu27geqrf_batch_scratchpad_sizeIfLPv0EEElRN2cl4sycl5queueEllllll
libonemkl_lapack_mklcpu.so.0:_ZN6oneapi3mkl6lapack6mklcpu27getrf_batch_scratchpad_sizeISt7complexIdELPv0EEElRN2cl4sycl5queueEPlSB_SB_lSB_
libonemkl_lapack_mklcpu.so.0:_ZN6oneapi3mkl6lapack6mklcpu27getrf_batch_scratchpad_sizeISt7complexIdELPv0EEElRN2cl4sycl5queueEllllll
libonemkl_lapack_mklcpu.so.0:_ZN6oneapi3mkl6lapack6mklcpu27getrf_batch_scratchpad_sizeISt7complexIfELPv0EEElRN2cl4sycl5queueEPlSB_SB_lSB_
libonemkl_lapack_mklcpu.so.0:_ZN6oneapi3mkl6lapack6mklcpu27getrf_batch_scratchpad_sizeISt7complexIfELPv0EEElRN2cl4sycl5queueEllllll
libonemkl_lapack_mklcpu.so.0:_ZN6oneapi3mkl6lapack6mklcpu27getrf_batch_scratchpad_sizeIdLPv0EEElRN2cl4sycl5queueEPlS9_S9_lS9_
libonemkl_lapack_mklcpu.so.0:_ZN6oneapi3mkl6lapack6mklcpu27getrf_batch_scratchpad_sizeIdLPv0EEElRN2cl4sycl5queueEllllll
libonemkl_lapack_mklcpu.so.0:_ZN6oneapi3mkl6lapack6mklcpu27getrf_batch_scratchpad_sizeIfLPv0EEElRN2cl4sycl5queueEPlS9_S9_lS9_
libonemkl_lapack_mklcpu.so.0:_ZN6oneapi3mkl6lapack6mklcpu27getrf_batch_scratchpad_sizeIfLPv0EEElRN2cl4sycl5queueEllllll
libonemkl_lapack_mklcpu.so.0:_ZN6oneapi3mkl6lapack6mklcpu27getri_batch_scratchpad_sizeISt7complexIdELPv0EEElRN2cl4sycl5queueEPlSB_lSB_
libonemkl_lapack_mklcpu.so.0:_ZN6oneapi3mkl6lapack6mklcpu27getri_batch_scratchpad_sizeISt7complexIdELPv0EEElRN2cl4sycl5queueElllll
libonemkl_lapack_mklcpu.so.0:_ZN6oneapi3mkl6lapack6mklcpu27getri_batch_scratchpad_sizeISt7complexIfELPv0EEElRN2cl4sycl5queueEPlSB_lSB_
libonemkl_lapack_mklcpu.so.0:_ZN6oneapi3mkl6lapack6mklcpu27getri_batch_scratchpad_sizeISt7complexIfELPv0EEElRN2cl4sycl5queueElllll
libonemkl_lapack_mklcpu.so.0:_ZN6oneapi3mkl6lapack6mklcpu27getri_batch_scratchpad_sizeIdLPv0EEElRN2cl4sycl5queueEPlS9_lS9_
libonemkl_lapack_mklcpu.so.0:_ZN6oneapi3mkl6lapack6mklcpu27getri_batch_scratchpad_sizeIdLPv0EEElRN2cl4sycl5queueElllll
libonemkl_lapack_mklcpu.so.0:_ZN6oneapi3mkl6lapack6mklcpu27getri_batch_scratchpad_sizeIfLPv0EEElRN2cl4sycl5queueEPlS9_lS9_
libonemkl_lapack_mklcpu.so.0:_ZN6oneapi3mkl6lapack6mklcpu27getri_batch_scratchpad_sizeIfLPv0EEElRN2cl4sycl5queueElllll
libonemkl_lapack_mklcpu.so.0:_ZN6oneapi3mkl6lapack6mklcpu27getrs_batch_scratchpad_sizeISt7complexIdELPv0EEElRN2cl4sycl5queueENS0_9transposeEllllllll
libonemkl_lapack_mklcpu.so.0:_ZN6oneapi3mkl6lapack6mklcpu27getrs_batch_scratchpad_sizeISt7complexIdELPv0EEElRN2cl4sycl5queueEPNS0_9transposeEPlSD_SD_SD_lSD_
libonemkl_lapack_mklcpu.so.0:_ZN6oneapi3mkl6lapack6mklcpu27getrs_batch_scratchpad_sizeISt7complexIfELPv0EEElRN2cl4sycl5queueENS0_9transposeEllllllll
libonemkl_lapack_mklcpu.so.0:_ZN6oneapi3mkl6lapack6mklcpu27getrs_batch_scratchpad_sizeISt7complexIfELPv0EEElRN2cl4sycl5queueEPNS0_9transposeEPlSD_SD_SD_lSD_
libonemkl_lapack_mklcpu.so.0:_ZN6oneapi3mkl6lapack6mklcpu27getrs_batch_scratchpad_sizeIdLPv0EEElRN2cl4sycl5queueENS0_9transposeEllllllll
libonemkl_lapack_mklcpu.so.0:_ZN6oneapi3mkl6lapack6mklcpu27getrs_batch_scratchpad_sizeIdLPv0EEElRN2cl4sycl5queueEPNS0_9transposeEPlSB_SB_SB_lSB_
libonemkl_lapack_mklcpu.so.0:_ZN6oneapi3mkl6lapack6mklcpu27getrs_batch_scratchpad_sizeIfLPv0EEElRN2cl4sycl5queueENS0_9transposeEllllllll
libonemkl_lapack_mklcpu.so.0:_ZN6oneapi3mkl6lapack6mklcpu27getrs_batch_scratchpad_sizeIfLPv0EEElRN2cl4sycl5queueEPNS0_9transposeEPlSB_SB_SB_lSB_
libonemkl_lapack_mklcpu.so.0:_ZN6oneapi3mkl6lapack6mklcpu27orgqr_batch_scratchpad_sizeIdLPv0EEElRN2cl4sycl5queueEPlS9_S9_S9_lS9_
libonemkl_lapack_mklcpu.so.0:_ZN6oneapi3mkl6lapack6mklcpu27orgqr_batch_scratchpad_sizeIdLPv0EEElRN2cl4sycl5queueElllllll
libonemkl_lapack_mklcpu.so.0:_ZN6oneapi3mkl6lapack6mklcpu27orgqr_batch_scratchpad_sizeIfLPv0EEElRN2cl4sycl5queueEPlS9_S9_S9_lS9_
libonemkl_lapack_mklcpu.so.0:_ZN6oneapi3mkl6lapack6mklcpu27orgqr_batch_scratchpad_sizeIfLPv0EEElRN2cl4sycl5queueElllllll
libonemkl_lapack_mklcpu.so.0:_ZN6oneapi3mkl6lapack6mklcpu27potrf_batch_scratchpad_sizeISt7complexIdELPv0EEElRN2cl4sycl5queueENS0_4uploEllll
libonemkl_lapack_mklcpu.so.0:_ZN6oneapi3mkl6lapack6mklcpu27potrf_batch_scratchpad_sizeISt7complexIdELPv0EEElRN2cl4sycl5queueEPNS0_4uploEPlSD_lSD_
libonemkl_lapack_mklcpu.so.0:_ZN6oneapi3mkl6lapack6mklcpu27potrf_batch_scratchpad_sizeISt7complexIfELPv0EEElRN2cl4sycl5queueENS0_4uploEllll
libonemkl_lapack_mklcpu.so.0:_ZN6oneapi3mkl6lapack6mklcpu27potrf_batch_scratchpad_sizeISt7complexIfELPv0EEElRN2cl4sycl5queueEPNS0_4uploEPlSD_lSD_
libonemkl_lapack_mklcpu.so.0:_ZN6oneapi3mkl6lapack6mklcpu27potrf_batch_scratchpad_sizeIdLPv0EEElRN2cl4sycl5queueENS0_4uploEllll
libonemkl_lapack_mklcpu.so.0:_ZN6oneapi3mkl6lapack6mklcpu27potrf_batch_scratchpad_sizeIdLPv0EEElRN2cl4sycl5queueEPNS0_4uploEPlSB_lSB_
libonemkl_lapack_mklcpu.so.0:_ZN6oneapi3mkl6lapack6mklcpu27potrf_batch_scratchpad_sizeIfLPv0EEElRN2cl4sycl5queueENS0_4uploEllll
libonemkl_lapack_mklcpu.so.0:_ZN6oneapi3mkl6lapack6mklcpu27potrf_batch_scratchpad_sizeIfLPv0EEElRN2cl4sycl5queueEPNS0_4uploEPlSB_lSB_
libonemkl_lapack_mklcpu.so.0:_ZN6oneapi3mkl6lapack6mklcpu27potrs_batch_scratchpad_sizeISt7complexIdELPv0EEElRN2cl4sycl5queueENS0_4uploElllllll
libonemkl_lapack_mklcpu.so.0:_ZN6oneapi3mkl6lapack6mklcpu27potrs_batch_scratchpad_sizeISt7complexIdELPv0EEElRN2cl4sycl5queueEPNS0_4uploEPlSD_SD_SD_lSD_
libonemkl_lapack_mklcpu.so.0:_ZN6oneapi3mkl6lapack6mklcpu27potrs_batch_scratchpad_sizeISt7complexIfELPv0EEElRN2cl4sycl5queueENS0_4uploElllllll
libonemkl_lapack_mklcpu.so.0:_ZN6oneapi3mkl6lapack6mklcpu27potrs_batch_scratchpad_sizeISt7complexIfELPv0EEElRN2cl4sycl5queueEPNS0_4uploEPlSD_SD_SD_lSD_
libonemkl_lapack_mklcpu.so.0:_ZN6oneapi3mkl6lapack6mklcpu27potrs_batch_scratchpad_sizeIdLPv0EEElRN2cl4sycl5queueENS0_4uploElllllll
libonemkl_lapack_mklcpu.so.0:_ZN6oneapi3mkl6lapack6mklcpu27potrs_batch_scratchpad_sizeIdLPv0EEElRN2cl4sycl5queueEPNS0_4uploEPlSB_SB_SB_lSB_
libonemkl_lapack_mklcpu.so.0:_ZN6oneapi3mkl6lapack6mklcpu27potrs_batch_scratchpad_sizeIfLPv0EEElRN2cl4sycl5queueENS0_4uploElllllll
libonemkl_lapack_mklcpu.so.0:_ZN6oneapi3mkl6lapack6mklcpu27potrs_batch_scratchpad_sizeIfLPv0EEElRN2cl4sycl5queueEPNS0_4uploEPlSB_SB_SB_lSB_
libonemkl_lapack_mklcpu.so.0:_ZN6oneapi3mkl6lapack6mklcpu27ungqr_batch_scratchpad_sizeISt7complexIdELPv0EEElRN2cl4sycl5queueEPlSB_SB_SB_lSB_
libonemkl_lapack_mklcpu.so.0:_ZN6oneapi3mkl6lapack6mklcpu27ungqr_batch_scratchpad_sizeISt7complexIdELPv0EEElRN2cl4sycl5queueElllllll
libonemkl_lapack_mklcpu.so.0:_ZN6oneapi3mkl6lapack6mklcpu27ungqr_batch_scratchpad_sizeISt7complexIfELPv0EEElRN2cl4sycl5queueEPlSB_SB_SB_lSB_
libonemkl_lapack_mklcpu.so.0:_ZN6oneapi3mkl6lapack6mklcpu27ungqr_batch_scratchpad_sizeISt7complexIfELPv0EEElRN2cl4sycl5queueElllllll
libonemkl_lapack_mklcpu.so.0:_ZN6oneapi3mkl6lapack6mklcpu5gebrdERN2cl4sycl5queueEllPSt7complexIdElPdSA_S9_S9_S9_lRKSt6vectorINS4_5eventESaISC_EE
libonemkl_lapack_mklcpu.so.0:_ZN6oneapi3mkl6lapack6mklcpu5gebrdERN2cl4sycl5queueEllPSt7complexIfElPfSA_S9_S9_S9_lRKSt6vectorINS4_5eventESaISC_EE
libonemkl_lapack_mklcpu.so.0:_ZN6oneapi3mkl6lapack6mklcpu5gebrdERN2cl4sycl5queueEllPdlS7_S7_S7_S7_S7_lRKSt6vectorINS4_5eventESaIS9_EE
libonemkl_lapack_mklcpu.so.0:_ZN6oneapi3mkl6lapack6mklcpu5gebrdERN2cl4sycl5queueEllPflS7_S7_S7_S7_S7_lRKSt6vectorINS4_5eventESaIS9_EE
libonemkl_lapack_mklcpu.so.0:_ZN6oneapi3mkl6lapack6mklcpu5gebrdERN2cl4sycl5queueEllRNS4_6bufferISt7complexIdELi1ENS4_6detail17aligned_allocatorIcEEvEElRNS7_IdLi1ESC_vEESG_SE_SE_SE_l
libonemkl_lapack_mklcpu.so.0:_ZN6oneapi3mkl6lapack6mklcpu5gebrdERN2cl4sycl5queueEllRNS4_6bufferISt7complexIfELi1ENS4_6detail17aligned_allocatorIcEEvEElRNS7_IfLi1ESC_vEESG_SE_SE_SE_l
libonemkl_lapack_mklcpu.so.0:_ZN6oneapi3mkl6lapack6mklcpu5gebrdERN2cl4sycl5queueEllRNS4_6bufferIdLi1ENS4_6detail17aligned_allocatorIcEEvEElSC_SC_SC_SC_SC_l
libonemkl_lapack_mklcpu.so.0:_ZN6oneapi3mkl6lapack6mklcpu5gebrdERN2cl4sycl5queueEllRNS4_6bufferIfLi1ENS4_6detail17aligned_allocatorIcEEvEElSC_SC_SC_SC_SC_l
libonemkl_lapack_mklcpu.so.0:_ZN6oneapi3mkl6lapack6mklcpu5geqrfERN2cl4sycl5queueEllPSt7complexIdElS9_S9_lRKSt6vectorINS4_5eventESaISB_EE
libonemkl_lapack_mklcpu.so.0:_ZN6oneapi3mkl6lapack6mklcpu5geqrfERN2cl4sycl5queueEllPSt7complexIfElS9_S9_lRKSt6vectorINS4_5eventESaISB_EE
libonemkl_lapack_mklcpu.so.0:_ZN6oneapi3mkl6lapack6mklcpu5geqrfERN2cl4sycl5queueEllPdlS7_S7_lRKSt6vectorINS4_5eventESaIS9_EE
libonemkl_lapack_mklcpu.so.0:_ZN6oneapi3mkl6lapack6mklcpu5geqrfERN2cl4sycl5queueEllPflS7_S7_lRKSt6vectorINS4_5eventESaIS9_EE
libonemkl_lapack_mklcpu.so.0:_ZN6oneapi3mkl6lapack6mklcpu5geqrfERN2cl4sycl5queueEllRNS4_6bufferISt7complexIdELi1ENS4_6detail17aligned_allocatorIcEEvEElSE_SE_l
libonemkl_lapack_mklcpu.so.0:_ZN6oneapi3mkl6lapack6mklcpu5geqrfERN2cl4sycl5queueEllRNS4_6bufferISt7complexIfELi1ENS4_6detail17aligned_allocatorIcEEvEElSE_SE_l
libonemkl_lapack_mklcpu.so.0:_ZN6oneapi3mkl6lapack6mklcpu5geqrfERN2cl4sycl5queueEllRNS4_6bufferIdLi1ENS4_6detail17aligned_allocatorIcEEvEElSC_SC_l
libonemkl_lapack_mklcpu.so.0:_ZN6oneapi3mkl6lapack6mklcpu5geqrfERN2cl4sycl5queueEllRNS4_6bufferIfLi1ENS4_6detail17aligned_allocatorIcEEvEElSC_SC_l
libonemkl_lapack_mklcpu.so.0:_ZN6oneapi3mkl6lapack6mklcpu5gerqfERN2cl4sycl5queueEllPSt7complexIdElS9_S9_lRKSt6vectorINS4_5eventESaISB_EE
libonemkl_lapack_mklcpu.so.0:_ZN6oneapi3mkl6lapack6mklcpu5gerqfERN2cl4sycl5queueEllPSt7complexIfElS9_S9_lRKSt6vectorINS4_5eventESaISB_EE
libonemkl_lapack_mklcpu.so.0:_ZN6oneapi3mkl6lapack6mklcpu5gerqfERN2cl4sycl5queueEllPdlS7_S7_lRKSt6vectorINS4_5eventESaIS9_EE
libonemkl_lapack_mklcpu.so.0:_ZN6oneapi3mkl6lapack6mklcpu5gerqfERN2cl4sycl5queueEllPflS7_S7_lRKSt6vectorINS4_5eventESaIS9_EE
libonemkl_lapack_mklcpu.so.0:_ZN6oneapi3mkl6lapack6mklcpu5gerqfERN2cl4sycl5queueEllRNS4_6bufferISt7complexIdELi1ENS4_6detail17aligned_allocatorIcEEvEElSE_SE_l
libonemkl_lapack_mklcpu.so.0:_ZN6oneapi3mkl6lapack6mklcpu5gerqfERN2cl4sycl5queueEllRNS4_6bufferISt7complexIfELi1ENS4_6detail17aligned_allocatorIcEEvEElSE_SE_l
libonemkl_lapack_mklcpu.so.0:_ZN6oneapi3mkl6lapack6mklcpu5gerqfERN2cl4sycl5queueEllRNS4_6bufferIdLi1ENS4_6detail17aligned_allocatorIcEEvEElSC_SC_l
libonemkl_lapack_mklcpu.so.0:_ZN6oneapi3mkl6lapack6mklcpu5gerqfERN2cl4sycl5queueEllRNS4_6bufferIfLi1ENS4_6detail17aligned_allocatorIcEEvEElSC_SC_l
libonemkl_lapack_mklcpu.so.0:_ZN6oneapi3mkl6lapack6mklcpu5gesvdERN2cl4sycl5queueENS0_6jobsvdES7_llPSt7complexIdElPdSA_lSA_lSA_lRKSt6vectorINS4_5eventESaISD_EE
libonemkl_lapack_mklcpu.so.0:_ZN6oneapi3mkl6lapack6mklcpu5gesvdERN2cl4sycl5queueENS0_6jobsvdES7_llPSt7complexIfElPfSA_lSA_lSA_lRKSt6vectorINS4_5eventESaISD_EE
libonemkl_lapack_mklcpu.so.0:_ZN6oneapi3mkl6lapack6mklcpu5gesvdERN2cl4sycl5queueENS0_6jobsvdES7_llPdlS8_S8_lS8_lS8_lRKSt6vectorINS4_5eventESaISA_EE
libonemkl_lapack_mklcpu.so.0:_ZN6oneapi3mkl6lapack6mklcpu5gesvdERN2cl4sycl5queueENS0_6jobsvdES7_llPflS8_S8_lS8_lS8_lRKSt6vectorINS4_5eventESaISA_EE
libonemkl_lapack_mklcpu.so.0:_ZN6oneapi3mkl6lapack6mklcpu5gesvdERN2cl4sycl5queueENS0_6jobsvdES7_llRNS4_6bufferISt7complexIdELi1ENS4_6detail17aligned_allocatorIcEEvEElRNS8_IdLi1ESD_vEESF_lSF_lSF_l
libonemkl_lapack_mklcpu.so.0:_ZN6oneapi3mkl6lapack6mklcpu5gesvdERN2cl4sycl5queueENS0_6jobsvdES7_llRNS4_6bufferISt7complexIfELi1ENS4_6detail17aligned_allocatorIcEEvEElRNS8_IfLi1ESD_vEESF_lSF_lSF_l
libonemkl_lapack_mklcpu.so.0:_ZN6oneapi3mkl6lapack6mklcpu5gesvdERN2cl4sycl5queueENS0_6jobsvdES7_llRNS4_6bufferIdLi1ENS4_6detail17aligned_allocatorIcEEvEElSD_SD_lSD_lSD_l
libonemkl_lapack_mklcpu.so.0:_ZN6oneapi3mkl6lapack6mklcpu5gesvdERN2cl4sycl5queueENS0_6jobsvdES7_llRNS4_6bufferIfLi1ENS4_6detail17aligned_allocatorIcEEvEElSD_SD_lSD_lSD_l
libonemkl_lapack_mklcpu.so.0:_ZN6oneapi3mkl6lapack6mklcpu5getrfERN2cl4sycl5queueEllPSt7complexIdElPlS9_lRKSt6vectorINS4_5eventESaISC_EE
libonemkl_lapack_mklcpu.so.0:_ZN6oneapi3mkl6lapack6mklcpu5getrfERN2cl4sycl5queueEllPSt7complexIfElPlS9_lRKSt6vectorINS4_5eventESaISC_EE
libonemkl_lapack_mklcpu.so.0:_ZN6oneapi3mkl6lapack6mklcpu5getrfERN2cl4sycl5queueEllPdlPlS7_lRKSt6vectorINS4_5eventESaISA_EE
libonemkl_lapack_mklcpu.so.0:_ZN6oneapi3mkl6lapack6mklcpu5getrfERN2cl4sycl5queueEllPflPlS7_lRKSt6vectorINS4_5eventESaISA_EE
libonemkl_lapack_mklcpu.so.0:_ZN6oneapi3mkl6lapack6mklcpu5getrfERN2cl4sycl5queueEllRNS4_6bufferISt7complexIdELi1ENS4_6detail17aligned_allocatorIcEEvEElRNS7_IlLi1ESC_vEESE_l
libonemkl_lapack_mklcpu.so.0:_ZN6oneapi3mkl6lapack6mklcpu5getrfERN2cl4sycl5queueEllRNS4_6bufferISt7complexIfELi1ENS4_6detail17aligned_allocatorIcEEvEElRNS7_IlLi1ESC_vEESE_l
libonemkl_lapack_mklcpu.so.0:_ZN6oneapi3mkl6lapack6mklcpu5getrfERN2cl4sycl5queueEllRNS4_6bufferIdLi1ENS4_6detail17aligned_allocatorIcEEvEElRNS7_IlLi1ESA_vEESC_l
libonemkl_lapack_mklcpu.so.0:_ZN6oneapi3mkl6lapack6mklcpu5getrfERN2cl4sycl5queueEllRNS4_6bufferIfLi1ENS4_6detail17aligned_allocatorIcEEvEElRNS7_IlLi1ESA_vEESC_l
libonemkl_lapack_mklcpu.so.0:_ZN6oneapi3mkl6lapack6mklcpu5getriERN2cl4sycl5queueElPSt7complexIdElPlS9_lRKSt6vectorINS4_5eventESaISC_EE
libonemkl_lapack_mklcpu.so.0:_ZN6oneapi3mkl6lapack6mklcpu5getriERN2cl4sycl5queueElPSt7complexIfElPlS9_lRKSt6vectorINS4_5eventESaISC_EE
libonemkl_lapack_mklcpu.so.0:_ZN6oneapi3mkl6lapack6mklcpu5getriERN2cl4sycl5queueElPdlPlS7_lRKSt6vectorINS4_5eventESaISA_EE
libonemkl_lapack_mklcpu.so.0:_ZN6oneapi3mkl6lapack6mklcpu5getriERN2cl4sycl5queueElPflPlS7_lRKSt6vectorINS4_5eventESaISA_EE
libonemkl_lapack_mklcpu.so.0:_ZN6oneapi3mkl6lapack6mklcpu5getriERN2cl4sycl5queueElRNS4_6bufferISt7complexIdELi1ENS4_6detail17aligned_allocatorIcEEvEElRNS7_IlLi1ESC_vEESE_l
libonemkl_lapack_mklcpu.so.0:_ZN6oneapi3mkl6lapack6mklcpu5getriERN2cl4sycl5queueElRNS4_6bufferISt7complexIfELi1ENS4_6detail17aligned_allocatorIcEEvEElRNS7_IlLi1ESC_vEESE_l
libonemkl_lapack_mklcpu.so.0:_ZN6oneapi3mkl6lapack6mklcpu5getriERN2cl4sycl5queueElRNS4_6bufferIdLi1ENS4_6detail17aligned_allocatorIcEEvEElRNS7_IlLi1ESA_vEESC_l
libonemkl_lapack_mklcpu.so.0:_ZN6oneapi3mkl6lapack6mklcpu5getriERN2cl4sycl5queueElRNS4_6bufferIfLi1ENS4_6detail17aligned_allocatorIcEEvEElRNS7_IlLi1ESA_vEESC_l
libonemkl_lapack_mklcpu.so.0:_ZN6oneapi3mkl6lapack6mklcpu5getrsERN2cl4sycl5queueENS0_9transposeEllPSt7complexIdElPlSA_lSA_lRKSt6vectorINS4_5eventESaISD_EE
libonemkl_lapack_mklcpu.so.0:_ZN6oneapi3mkl6lapack6mklcpu5getrsERN2cl4sycl5queueENS0_9transposeEllPSt7complexIfElPlSA_lSA_lRKSt6vectorINS4_5eventESaISD_EE
libonemkl_lapack_mklcpu.so.0:_ZN6oneapi3mkl6lapack6mklcpu5getrsERN2cl4sycl5queueENS0_9transposeEllPdlPlS8_lS8_lRKSt6vectorINS4_5eventESaISB_EE
libonemkl_lapack_mklcpu.so.0:_ZN6oneapi3mkl6lapack6mklcpu5getrsERN2cl4sycl5queueENS0_9transposeEllPflPlS8_lS8_lRKSt6vectorINS4_5eventESaISB_EE
libonemkl_lapack_mklcpu.so.0:_ZN6oneapi3mkl6lapack6mklcpu5getrsERN2cl4sycl5queueENS0_9transposeEllRNS4_6bufferISt7complexIdELi1ENS4_6detail17aligned_allocatorIcEEvEElRNS8_IlLi1ESD_vEESF_lSF_l
libonemkl_lapack_mklcpu.so.0:_ZN6oneapi3mkl6lapack6mklcpu5getrsERN2cl4sycl5queueENS0_9transposeEllRNS4_6bufferISt7complexIfELi1ENS4_6detail17aligned_allocatorIcEEvEElRNS8_IlLi1ESD_vEESF_lSF_l
libonemkl_lapack_mklcpu.so.0:_ZN6oneapi3mkl6lapack6mklcpu5getrsERN2cl4sycl5queueENS0_9transposeEllRNS4_6bufferIdLi1ENS4_6detail17aligned_allocatorIcEEvEElRNS8_IlLi1ESB_vEESD_lSD_l
libonemkl_lapack_mklcpu.so.0:_ZN6oneapi3mkl6lapack6mklcpu5getrsERN2cl4sycl5queueENS0_9transposeEllRNS4_6bufferIfLi1ENS4_6detail17aligned_allocatorIcEEvEElRNS8_IlLi1ESB_vEESD_lSD_l
libonemkl_lapack_mklcpu.so.0:_ZN6oneapi3mkl6lapack6mklcpu5heevdERN2cl4sycl5queueENS0_3jobENS0_4uploElPSt7complexIdElPdSB_lRKSt6vectorINS4_5eventESaISE_EE
libonemkl_lapack_mklcpu.so.0:_ZN6oneapi3mkl6lapack6mklcpu5heevdERN2cl4sycl5queueENS0_3jobENS0_4uploElPSt7complexIfElPfSB_lRKSt6vectorINS4_5eventESaISE_EE
libonemkl_lapack_mklcpu.so.0:_ZN6oneapi3mkl6lapack6mklcpu5heevdERN2cl4sycl5queueENS0_3jobENS0_4uploElRNS4_6bufferISt7complexIdELi1ENS4_6detail17aligned_allocatorIcEEvEElRNS9_IdLi1ESE_vEESG_l
libonemkl_lapack_mklcpu.so.0:_ZN6oneapi3mkl6lapack6mklcpu5heevdERN2cl4sycl5queueENS0_3jobENS0_4uploElRNS4_6bufferISt7complexIfELi1ENS4_6detail17aligned_allocatorIcEEvEElRNS9_IfLi1ESE_vEESG_l
libonemkl_lapack_mklcpu.so.0:_ZN6oneapi3mkl6lapack6mklcpu5hegvdERN2cl4sycl5queueElNS0_3jobENS0_4uploElPSt7complexIdElSB_lPdSB_lRKSt6vectorINS4_5eventESaISE_EE
libonemkl_lapack_mklcpu.so.0:_ZN6oneapi3mkl6lapack6mklcpu5hegvdERN2cl4sycl5queueElNS0_3jobENS0_4uploElPSt7complexIfElSB_lPfSB_lRKSt6vectorINS4_5eventESaISE_EE
libonemkl_lapack_mklcpu.so.0:_ZN6oneapi3mkl6lapack6mklcpu5hegvdERN2cl4sycl5queueElNS0_3jobENS0_4uploElRNS4_6bufferISt7complexIdELi1ENS4_6detail17aligned_allocatorIcEEvEElSG_lRNS9_IdLi1ESE_vEESG_l
libonemkl_lapack_mklcpu.so.0:_ZN6oneapi3mkl6lapack6mklcpu5hegvdERN2cl4sycl5queueElNS0_3jobENS0_4uploElRNS4_6bufferISt7complexIfELi1ENS4_6detail17aligned_allocatorIcEEvEElSG_lRNS9_IfLi1ESE_vEESG_l
libonemkl_lapack_mklcpu.so.0:_ZN6oneapi3mkl6lapack6mklcpu5hetrdERN2cl4sycl5queueENS0_4uploElPSt7complexIdElPdSB_SA_SA_lRKSt6vectorINS4_5eventESaISD_EE
libonemkl_lapack_mklcpu.so.0:_ZN6oneapi3mkl6lapack6mklcpu5hetrdERN2cl4sycl5queueENS0_4uploElPSt7complexIfElPfSB_SA_SA_lRKSt6vectorINS4_5eventESaISD_EE
libonemkl_lapack_mklcpu.so.0:_ZN6oneapi3mkl6lapack6mklcpu5hetrdERN2cl4sycl5queueENS0_4uploElRNS4_6bufferISt7complexIdELi1ENS4_6detail17aligned_allocatorIcEEvEElRNS8_IdLi1ESD_vEESH_SF_SF_l
libonemkl_lapack_mklcpu.so.0:_ZN6oneapi3mkl6lapack6mklcpu5hetrdERN2cl4sycl5queueENS0_4uploElRNS4_6bufferISt7complexIfELi1ENS4_6detail17aligned_allocatorIcEEvEElRNS8_IfLi1ESD_vEESH_SF_SF_l
libonemkl_lapack_mklcpu.so.0:_ZN6oneapi3mkl6lapack6mklcpu5hetrfERN2cl4sycl5queueENS0_4uploElPSt7complexIdElPlSA_lRKSt6vectorINS4_5eventESaISD_EE
libonemkl_lapack_mklcpu.so.0:_ZN6oneapi3mkl6lapack6mklcpu5hetrfERN2cl4sycl5queueENS0_4uploElPSt7complexIfElPlSA_lRKSt6vectorINS4_5eventESaISD_EE
libonemkl_lapack_mklcpu.so.0:_ZN6oneapi3mkl6lapack6mklcpu5hetrfERN2cl4sycl5queueENS0_4uploElRNS4_6bufferISt7complexIdELi1ENS4_6detail17aligned_allocatorIcEEvEElRNS8_IlLi1ESD_vEESF_l
libonemkl_lapack_mklcpu.so.0:_ZN6oneapi3mkl6lapack6mklcpu5hetrfERN2cl4sycl5queueENS0_4uploElRNS4_6bufferISt7complexIfELi1ENS4_6detail17aligned_allocatorIcEEvEElRNS8_IlLi1ESD_vEESF_l
libonemkl_lapack_mklcpu.so.0:_ZN6oneapi3mkl6lapack6mklcpu5orgbrERN2cl4sycl5queueENS0_8generateElllPdlS8_S8_lRKSt6vectorINS4_5eventESaISA_EE
libonemkl_lapack_mklcpu.so.0:_ZN6oneapi3mkl6lapack6mklcpu5orgbrERN2cl4sycl5queueENS0_8generateElllPflS8_S8_lRKSt6vectorINS4_5eventESaISA_EE
libonemkl_lapack_mklcpu.so.0:_ZN6oneapi3mkl6lapack6mklcpu5orgbrERN2cl4sycl5queueENS0_8generateElllRNS4_6bufferIdLi1ENS4_6detail17aligned_allocatorIcEEvEElSD_SD_l
libonemkl_lapack_mklcpu.so.0:_ZN6oneapi3mkl6lapack6mklcpu5orgbrERN2cl4sycl5queueENS0_8generateElllRNS4_6bufferIfLi1ENS4_6detail17aligned_allocatorIcEEvEElSD_SD_l
libonemkl_lapack_mklcpu.so.0:_ZN6oneapi3mkl6lapack6mklcpu5orgqrERN2cl4sycl5queueElllPdlS7_S7_lRKSt6vectorINS4_5eventESaIS9_EE
libonemkl_lapack_mklcpu.so.0:_ZN6oneapi3mkl6lapack6mklcpu5orgqrERN2cl4sycl5queueElllPflS7_S7_lRKSt6vectorINS4_5eventESaIS9_EE
libonemkl_lapack_mklcpu.so.0:_ZN6oneapi3mkl6lapack6mklcpu5orgqrERN2cl4sycl5queueElllRNS4_6bufferIdLi1ENS4_6detail17aligned_allocatorIcEEvEElSC_SC_l
libonemkl_lapack_mklcpu.so.0:_ZN6oneapi3mkl6lapack6mklcpu5orgqrERN2cl4sycl5queueElllRNS4_6bufferIfLi1ENS4_6detail17aligned_allocatorIcEEvEElSC_SC_l
libonemkl_lapack_mklcpu.so.0:_ZN6oneapi3mkl6lapack6mklcpu5orgtrERN2cl4sycl5queueENS0_4uploElPdlS8_S8_lRKSt6vectorINS4_5eventESaISA_EE
libonemkl_lapack_mklcpu.so.0:_ZN6oneapi3mkl6lapack6mklcpu5orgtrERN2cl4sycl5queueENS0_4uploElPflS8_S8_lRKSt6vectorINS4_5eventESaISA_EE
libonemkl_lapack_mklcpu.so.0:_ZN6oneapi3mkl6lapack6mklcpu5orgtrERN2cl4sycl5queueENS0_4uploElRNS4_6bufferIdLi1ENS4_6detail17aligned_allocatorIcEEvEElSD_SD_l
libonemkl_lapack_mklcpu.so.0:_ZN6oneapi3mkl6lapack6mklcpu5orgtrERN2cl4sycl5queueENS0_4uploElRNS4_6bufferIfLi1ENS4_6detail17aligned_allocatorIcEEvEElSD_SD_l
libonemkl_lapack_mklcpu.so.0:_ZN6oneapi3mkl6lapack6mklcpu5ormqrERN2cl4sycl5queueENS0_4sideENS0_9transposeElllPdlS9_S9_lS9_lRKSt6vectorINS4_5eventESaISB_EE
libonemkl_lapack_mklcpu.so.0:_ZN6oneapi3mkl6lapack6mklcpu5ormqrERN2cl4sycl5queueENS0_4sideENS0_9transposeElllPflS9_S9_lS9_lRKSt6vectorINS4_5eventESaISB_EE
libonemkl_lapack_mklcpu.so.0:_ZN6oneapi3mkl6lapack6mklcpu5ormqrERN2cl4sycl5queueENS0_4sideENS0_9transposeElllRNS4_6bufferIdLi1ENS4_6detail17aligned_allocatorIcEEvEElSE_SE_lSE_l
libonemkl_lapack_mklcpu.so.0:_ZN6oneapi3mkl6lapack6mklcpu5ormqrERN2cl4sycl5queueENS0_4sideENS0_9transposeElllRNS4_6bufferIfLi1ENS4_6detail17aligned_allocatorIcEEvEElSE_SE_lSE_l
libonemkl_lapack_mklcpu.so.0:_ZN6oneapi3mkl6lapack6mklcpu5ormrqERN2cl4sycl5queueENS0_4sideENS0_9transposeElllPdlS9_S9_lS9_lRKSt6vectorINS4_5eventESaISB_EE
libonemkl_lapack_mklcpu.so.0:_ZN6oneapi3mkl6lapack6mklcpu5ormrqERN2cl4sycl5queueENS0_4sideENS0_9transposeElllPflS9_S9_lS9_lRKSt6vectorINS4_5eventESaISB_EE
libonemkl_lapack_mklcpu.so.0:_ZN6oneapi3mkl6lapack6mklcpu5ormrqERN2cl4sycl5queueENS0_4sideENS0_9transposeElllRNS4_6bufferIdLi1ENS4_6detail17aligned_allocatorIcEEvEElSE_SE_lSE_l
libonemkl_lapack_mklcpu.so.0:_ZN6oneapi3mkl6lapack6mklcpu5ormrqERN2cl4sycl5queueENS0_4sideENS0_9transposeElllRNS4_6bufferIfLi1ENS4_6detail17aligned_allocatorIcEEvEElSE_SE_lSE_l
libonemkl_lapack_mklcpu.so.0:_ZN6oneapi3mkl6lapack6mklcpu5ormtrERN2cl4sycl5queueENS0_4sideENS0_4uploENS0_9transposeEllPdlSA_SA_lSA_lRKSt6vectorINS4_5eventESaISC_EE
libonemkl_lapack_mklcpu.so.0:_ZN6oneapi3mkl6lapack6mklcpu5ormtrERN2cl4sycl5queueENS0_4sideENS0_4uploENS0_9transposeEllPflSA_SA_lSA_lRKSt6vectorINS4_5eventESaISC_EE
libonemkl_lapack_mklcpu.so.0:_ZN6oneapi3mkl6lapack6mklcpu5ormtrERN2cl4sycl5queueENS0_4sideENS0_4uploENS0_9transposeEllRNS4_6bufferIdLi1ENS4_6detail17aligned_allocatorIcEEvEElSF_SF_lSF_l
libonemkl_lapack_mklcpu.so.0:_ZN6oneapi3mkl6lapack6mklcpu5ormtrERN2cl4sycl5queueENS0_4sideENS0_4uploENS0_9transposeEllRNS4_6bufferIfLi1ENS4_6detail17aligned_allocatorIcEEvEElSF_SF_lSF_l
libonemkl_lapack_mklcpu.so.0:_ZN6oneapi3mkl6lapack6mklcpu5potrfERN2cl4sycl5queueENS0_4uploElPSt7complexIdElSA_lRKSt6vectorINS4_5eventESaISC_EE
libonemkl_lapack_mklcpu.so.0:_ZN6oneapi3mkl6lapack6mklcpu5potrfERN2cl4sycl5queueENS0_4uploElPSt7complexIfElSA_lRKSt6vectorINS4_5eventESaISC_EE
libonemkl_lapack_mklcpu.so.0:_ZN6oneapi3mkl6lapack6mklcpu5potrfERN2cl4sycl5queueENS0_4uploElPdlS8_lRKSt6vectorINS4_5eventESaISA_EE
libonemkl_lapack_mklcpu.so.0:_ZN6oneapi3mkl6lapack6mklcpu5potrfERN2cl4sycl5queueENS0_4uploElPflS8_lRKSt6vectorINS4_5eventESaISA_EE
libonemkl_lapack_mklcpu.so.0:_ZN6oneapi3mkl6lapack6mklcpu5potrfERN2cl4sycl5queueENS0_4uploElRNS4_6bufferISt7complexIdELi1ENS4_6detail17aligned_allocatorIcEEvEElSF_l
libonemkl_lapack_mklcpu.so.0:_ZN6oneapi3mkl6lapack6mklcpu5potrfERN2cl4sycl5queueENS0_4uploElRNS4_6bufferISt7complexIfELi1ENS4_6detail17aligned_allocatorIcEEvEElSF_l
libonemkl_lapack_mklcpu.so.0:_ZN6oneapi3mkl6lapack6mklcpu5potrfERN2cl4sycl5queueENS0_4uploElRNS4_6bufferIdLi1ENS4_6detail17aligned_allocatorIcEEvEElSD_l
libonemkl_lapack_mklcpu.so.0:_ZN6oneapi3mkl6lapack6mklcpu5potrfERN2cl4sycl5queueENS0_4uploElRNS4_6bufferIfLi1ENS4_6detail17aligned_allocatorIcEEvEElSD_l
libonemkl_lapack_mklcpu.so.0:_ZN6oneapi3mkl6lapack6mklcpu5potriERN2cl4sycl5queueENS0_4uploElPSt7complexIdElSA_lRKSt6vectorINS4_5eventESaISC_EE
libonemkl_lapack_mklcpu.so.0:_ZN6oneapi3mkl6lapack6mklcpu5potriERN2cl4sycl5queueENS0_4uploElPSt7complexIfElSA_lRKSt6vectorINS4_5eventESaISC_EE
libonemkl_lapack_mklcpu.so.0:_ZN6oneapi3mkl6lapack6mklcpu5potriERN2cl4sycl5queueENS0_4uploElPdlS8_lRKSt6vectorINS4_5eventESaISA_EE
libonemkl_lapack_mklcpu.so.0:_ZN6oneapi3mkl6lapack6mklcpu5potriERN2cl4sycl5queueENS0_4uploElPflS8_lRKSt6vectorINS4_5eventESaISA_EE
libonemkl_lapack_mklcpu.so.0:_ZN6oneapi3mkl6lapack6mklcpu5potriERN2cl4sycl5queueENS0_4uploElRNS4_6bufferISt7complexIdELi1ENS4_6detail17aligned_allocatorIcEEvEElSF_l
libonemkl_lapack_mklcpu.so.0:_ZN6oneapi3mkl6lapack6mklcpu5potriERN2cl4sycl5queueENS0_4uploElRNS4_6bufferISt7complexIfELi1ENS4_6detail17aligned_allocatorIcEEvEElSF_l
libonemkl_lapack_mklcpu.so.0:_ZN6oneapi3mkl6lapack6mklcpu5potriERN2cl4sycl5queueENS0_4uploElRNS4_6bufferIdLi1ENS4_6detail17aligned_allocatorIcEEvEElSD_l
libonemkl_lapack_mklcpu.so.0:_ZN6oneapi3mkl6lapack6mklcpu5potriERN2cl4sycl5queueENS0_4uploElRNS4_6bufferIfLi1ENS4_6detail17aligned_allocatorIcEEvEElSD_l
libonemkl_lapack_mklcpu.so.0:_ZN6oneapi3mkl6lapack6mklcpu5potrsERN2cl4sycl5queueENS0_4uploEllPSt7complexIdElSA_lSA_lRKSt6vectorINS4_5eventESaISC_EE
libonemkl_lapack_mklcpu.so.0:_ZN6oneapi3mkl6lapack6mklcpu5potrsERN2cl4sycl5queueENS0_4uploEllPSt7complexIfElSA_lSA_lRKSt6vectorINS4_5eventESaISC_EE
libonemkl_lapack_mklcpu.so.0:_ZN6oneapi3mkl6lapack6mklcpu5potrsERN2cl4sycl5queueENS0_4uploEllPdlS8_lS8_lRKSt6vectorINS4_5eventESaISA_EE
libonemkl_lapack_mklcpu.so.0:_ZN6oneapi3mkl6lapack6mklcpu5potrsERN2cl4sycl5queueENS0_4uploEllPflS8_lS8_lRKSt6vectorINS4_5eventESaISA_EE
libonemkl_lapack_mklcpu.so.0:_ZN6oneapi3mkl6lapack6mklcpu5potrsERN2cl4sycl5queueENS0_4uploEllRNS4_6bufferISt7complexIdELi1ENS4_6detail17aligned_allocatorIcEEvEElSF_lSF_l
libonemkl_lapack_mklcpu.so.0:_ZN6oneapi3mkl6lapack6mklcpu5potrsERN2cl4sycl5queueENS0_4uploEllRNS4_6bufferISt7complexIfELi1ENS4_6detail17aligned_allocatorIcEEvEElSF_lSF_l
libonemkl_lapack_mklcpu.so.0:_ZN6oneapi3mkl6lapack6mklcpu5potrsERN2cl4sycl5queueENS0_4uploEllRNS4_6bufferIdLi1ENS4_6detail17aligned_allocatorIcEEvEElSD_lSD_l
libonemkl_lapack_mklcpu.so.0:_ZN6oneapi3mkl6lapack6mklcpu5potrsERN2cl4sycl5queueENS0_4uploEllRNS4_6bufferIfLi1ENS4_6detail17aligned_allocatorIcEEvEElSD_lSD_l
libonemkl_lapack_mklcpu.so.0:_ZN6oneapi3mkl6lapack6mklcpu5syevdERN2cl4sycl5queueENS0_3jobENS0_4uploElPdlS9_S9_lRKSt6vectorINS4_5eventESaISB_EE
libonemkl_lapack_mklcpu.so.0:_ZN6oneapi3mkl6lapack6mklcpu5syevdERN2cl4sycl5queueENS0_3jobENS0_4uploElPflS9_S9_lRKSt6vectorINS4_5eventESaISB_EE
libonemkl_lapack_mklcpu.so.0:_ZN6oneapi3mkl6lapack6mklcpu5syevdERN2cl4sycl5queueENS0_3jobENS0_4uploElRNS4_6bufferIdLi1ENS4_6detail17aligned_allocatorIcEEvEElSE_SE_l
libonemkl_lapack_mklcpu.so.0:_ZN6oneapi3mkl6lapack6mklcpu5syevdERN2cl4sycl5queueENS0_3jobENS0_4uploElRNS4_6bufferIfLi1ENS4_6detail17aligned_allocatorIcEEvEElSE_SE_l
libonemkl_lapack_mklcpu.so.0:_ZN6oneapi3mkl6lapack6mklcpu5sygvdERN2cl4sycl5queueElNS0_3jobENS0_4uploElPdlS9_lS9_S9_lRKSt6vectorINS4_5eventESaISB_EE
libonemkl_lapack_mklcpu.so.0:_ZN6oneapi3mkl6lapack6mklcpu5sygvdERN2cl4sycl5queueElNS0_3jobENS0_4uploElPflS9_lS9_S9_lRKSt6vectorINS4_5eventESaISB_EE
libonemkl_lapack_mklcpu.so.0:_ZN6oneapi3mkl6lapack6mklcpu5sygvdERN2cl4sycl5queueElNS0_3jobENS0_4uploElRNS4_6bufferIdLi1ENS4_6detail17aligned_allocatorIcEEvEElSE_lSE_SE_l
libonemkl_lapack_mklcpu.so.0:_ZN6oneapi3mkl6lapack6mklcpu5sygvdERN2cl4sycl5queueElNS0_3jobENS0_4uploElRNS4_6bufferIfLi1ENS4_6detail17aligned_allocatorIcEEvEElSE_lSE_SE_l
libonemkl_lapack_mklcpu.so.0:_ZN6oneapi3mkl6lapack6mklcpu5sytrdERN2cl4sycl5queueENS0_4uploElPdlS8_S8_S8_S8_lRKSt6vectorINS4_5eventESaISA_EE
libonemkl_lapack_mklcpu.so.0:_ZN6oneapi3mkl6lapack6mklcpu5sytrdERN2cl4sycl5queueENS0_4uploElPflS8_S8_S8_S8_lRKSt6vectorINS4_5eventESaISA_EE
libonemkl_lapack_mklcpu.so.0:_ZN6oneapi3mkl6lapack6mklcpu5sytrdERN2cl4sycl5queueENS0_4uploElRNS4_6bufferIdLi1ENS4_6detail17aligned_allocatorIcEEvEElSD_SD_SD_SD_l
libonemkl_lapack_mklcpu.so.0:_ZN6oneapi3mkl6lapack6mklcpu5sytrdERN2cl4sycl5queueENS0_4uploElRNS4_6bufferIfLi1ENS4_6detail17aligned_allocatorIcEEvEElSD_SD_SD_SD_l
libonemkl_lapack_mklcpu.so.0:_ZN6oneapi3mkl6lapack6mklcpu5sytrfERN2cl4sycl5queueENS0_4uploElPSt7complexIdElPlSA_lRKSt6vectorINS4_5eventESaISD_EE
libonemkl_lapack_mklcpu.so.0:_ZN6oneapi3mkl6lapack6mklcpu5sytrfERN2cl4sycl5queueENS0_4uploElPSt7complexIfElPlSA_lRKSt6vectorINS4_5eventESaISD_EE
libonemkl_lapack_mklcpu.so.0:_ZN6oneapi3mkl6lapack6mklcpu5sytrfERN2cl4sycl5queueENS0_4uploElPdlPlS8_lRKSt6vectorINS4_5eventESaISB_EE
libonemkl_lapack_mklcpu.so.0:_ZN6oneapi3mkl6lapack6mklcpu5sytrfERN2cl4sycl5queueENS0_4uploElPflPlS8_lRKSt6vectorINS4_5eventESaISB_EE
libonemkl_lapack_mklcpu.so.0:_ZN6oneapi3mkl6lapack6mklcpu5sytrfERN2cl4sycl5queueENS0_4uploElRNS4_6bufferISt7complexIdELi1ENS4_6detail17aligned_allocatorIcEEvEElRNS8_IlLi1ESD_vEESF_l
libonemkl_lapack_mklcpu.so.0:_ZN6oneapi3mkl6lapack6mklcpu5sytrfERN2cl4sycl5queueENS0_4uploElRNS4_6bufferISt7complexIfELi1ENS4_6detail17aligned_allocatorIcEEvEElRNS8_IlLi1ESD_vEESF_l
libonemkl_lapack_mklcpu.so.0:_ZN6oneapi3mkl6lapack6mklcpu5sytrfERN2cl4sycl5queueENS0_4uploElRNS4_6bufferIdLi1ENS4_6detail17aligned_allocatorIcEEvEElRNS8_IlLi1ESB_vEESD_l
libonemkl_lapack_mklcpu.so.0:_ZN6oneapi3mkl6lapack6mklcpu5sytrfERN2cl4sycl5queueENS0_4uploElRNS4_6bufferIfLi1ENS4_6detail17aligned_allocatorIcEEvEElRNS8_IlLi1ESB_vEESD_l
libonemkl_lapack_mklcpu.so.0:_ZN6oneapi3mkl6lapack6mklcpu5trtrsERN2cl4sycl5queueENS0_4uploENS0_9transposeENS0_4diagEllPSt7complexIdElSC_lSC_lRKSt6vectorINS4_5eventESaISE_EE
libonemkl_lapack_mklcpu.so.0:_ZN6oneapi3mkl6lapack6mklcpu5trtrsERN2cl4sycl5queueENS0_4uploENS0_9transposeENS0_4diagEllPSt7complexIfElSC_lSC_lRKSt6vectorINS4_5eventESaISE_EE
libonemkl_lapack_mklcpu.so.0:_ZN6oneapi3mkl6lapack6mklcpu5trtrsERN2cl4sycl5queueENS0_4uploENS0_9transposeENS0_4diagEllPdlSA_lSA_lRKSt6vectorINS4_5eventESaISC_EE
libonemkl_lapack_mklcpu.so.0:_ZN6oneapi3mkl6lapack6mklcpu5trtrsERN2cl4sycl5queueENS0_4uploENS0_9transposeENS0_4diagEllPflSA_lSA_lRKSt6vectorINS4_5eventESaISC_EE
libonemkl_lapack_mklcpu.so.0:_ZN6oneapi3mkl6lapack6mklcpu5trtrsERN2cl4sycl5queueENS0_4uploENS0_9transposeENS0_4diagEllRNS4_6bufferISt7complexIdELi1ENS4_6detail17aligned_allocatorIcEEvEElSH_lSH_l
libonemkl_lapack_mklcpu.so.0:_ZN6oneapi3mkl6lapack6mklcpu5trtrsERN2cl4sycl5queueENS0_4uploENS0_9transposeENS0_4diagEllRNS4_6bufferISt7complexIfELi1ENS4_6detail17aligned_allocatorIcEEvEElSH_lSH_l
libonemkl_lapack_mklcpu.so.0:_ZN6oneapi3mkl6lapack6mklcpu5trtrsERN2cl4sycl5queueENS0_4uploENS0_9transposeENS0_4diagEllRNS4_6bufferIdLi1ENS4_6detail17aligned_allocatorIcEEvEElSF_lSF_l
libonemkl_lapack_mklcpu.so.0:_ZN6oneapi3mkl6lapack6mklcpu5trtrsERN2cl4sycl5queueENS0_4uploENS0_9transposeENS0_4diagEllRNS4_6bufferIfLi1ENS4_6detail17aligned_allocatorIcEEvEElSF_lSF_l
libonemkl_lapack_mklcpu.so.0:_ZN6oneapi3mkl6lapack6mklcpu5ungbrERN2cl4sycl5queueENS0_8generateElllPSt7complexIdElSA_SA_lRKSt6vectorINS4_5eventESaISC_EE
libonemkl_lapack_mklcpu.so.0:_ZN6oneapi3mkl6lapack6mklcpu5ungbrERN2cl4sycl5queueENS0_8generateElllPSt7complexIfElSA_SA_lRKSt6vectorINS4_5eventESaISC_EE
libonemkl_lapack_mklcpu.so.0:_ZN6oneapi3mkl6lapack6mklcpu5ungbrERN2cl4sycl5queueENS0_8generateElllRNS4_6bufferISt7complexIdELi1ENS4_6detail17aligned_allocatorIcEEvEElSF_SF_l
libonemkl_lapack_mklcpu.so.0:_ZN6oneapi3mkl6lapack6mklcpu5ungbrERN2cl4sycl5queueENS0_8generateElllRNS4_6bufferISt7complexIfELi1ENS4_6detail17aligned_allocatorIcEEvEElSF_SF_l
libonemkl_lapack_mklcpu.so.0:_ZN6oneapi3mkl6lapack6mklcpu5ungqrERN2cl4sycl5queueElllPSt7complexIdElS9_S9_lRKSt6vectorINS4_5eventESaISB_EE
libonemkl_lapack_mklcpu.so.0:_ZN6oneapi3mkl6lapack6mklcpu5ungqrERN2cl4sycl5queueElllPSt7complexIfElS9_S9_lRKSt6vectorINS4_5eventESaISB_EE
libonemkl_lapack_mklcpu.so.0:_ZN6oneapi3mkl6lapack6mklcpu5ungqrERN2cl4sycl5queueElllRNS4_6bufferISt7complexIdELi1ENS4_6detail17aligned_allocatorIcEEvEElSE_SE_l
libonemkl_lapack_mklcpu.so.0:_ZN6oneapi3mkl6lapack6mklcpu5ungqrERN2cl4sycl5queueElllRNS4_6bufferISt7complexIfELi1ENS4_6detail17aligned_allocatorIcEEvEElSE_SE_l
libonemkl_lapack_mklcpu.so.0:_ZN6oneapi3mkl6lapack6mklcpu5ungtrERN2cl4sycl5queueENS0_4uploElPSt7complexIdElSA_SA_lRKSt6vectorINS4_5eventESaISC_EE
libonemkl_lapack_mklcpu.so.0:_ZN6oneapi3mkl6lapack6mklcpu5ungtrERN2cl4sycl5queueENS0_4uploElPSt7complexIfElSA_SA_lRKSt6vectorINS4_5eventESaISC_EE
libonemkl_lapack_mklcpu.so.0:_ZN6oneapi3mkl6lapack6mklcpu5ungtrERN2cl4sycl5queueENS0_4uploElRNS4_6bufferISt7complexIdELi1ENS4_6detail17aligned_allocatorIcEEvEElSF_SF_l
libonemkl_lapack_mklcpu.so.0:_ZN6oneapi3mkl6lapack6mklcpu5ungtrERN2cl4sycl5queueENS0_4uploElRNS4_6bufferISt7complexIfELi1ENS4_6detail17aligned_allocatorIcEEvEElSF_SF_l
libonemkl_lapack_mklcpu.so.0:_ZN6oneapi3mkl6lapack6mklcpu5unmqrERN2cl4sycl5queueENS0_4sideENS0_9transposeElllPSt7complexIdElSB_SB_lSB_lRKSt6vectorINS4_5eventESaISD_EE
libonemkl_lapack_mklcpu.so.0:_ZN6oneapi3mkl6lapack6mklcpu5unmqrERN2cl4sycl5queueENS0_4sideENS0_9transposeElllPSt7complexIfElSB_SB_lSB_lRKSt6vectorINS4_5eventESaISD_EE
libonemkl_lapack_mklcpu.so.0:_ZN6oneapi3mkl6lapack6mklcpu5unmqrERN2cl4sycl5queueENS0_4sideENS0_9transposeElllRNS4_6bufferISt7complexIdELi1ENS4_6detail17aligned_allocatorIcEEvEElSG_SG_lSG_l
libonemkl_lapack_mklcpu.so.0:_ZN6oneapi3mkl6lapack6mklcpu5unmqrERN2cl4sycl5queueENS0_4sideENS0_9transposeElllRNS4_6bufferISt7complexIfELi1ENS4_6detail17aligned_allocatorIcEEvEElSG_SG_lSG_l
libonemkl_lapack_mklcpu.so.0:_ZN6oneapi3mkl6lapack6mklcpu5unmrqERN2cl4sycl5queueENS0_4sideENS0_9transposeElllPSt7complexIdElSB_SB_lSB_lRKSt6vectorINS4_5eventESaISD_EE
libonemkl_lapack_mklcpu.so.0:_ZN6oneapi3mkl6lapack6mklcpu5unmrqERN2cl4sycl5queueENS0_4sideENS0_9transposeElllPSt7complexIfElSB_SB_lSB_lRKSt6vectorINS4_5eventESaISD_EE
libonemkl_lapack_mklcpu.so.0:_ZN6oneapi3mkl6lapack6mklcpu5unmrqERN2cl4sycl5queueENS0_4sideENS0_9transposeElllRNS4_6bufferISt7complexIdELi1ENS4_6detail17aligned_allocatorIcEEvEElSG_SG_lSG_l
libonemkl_lapack_mklcpu.so.0:_ZN6oneapi3mkl6lapack6mklcpu5unmrqERN2cl4sycl5queueENS0_4sideENS0_9transposeElllRNS4_6bufferISt7complexIfELi1ENS4_6detail17aligned_allocatorIcEEvEElSG_SG_lSG_l
libonemkl_lapack_mklcpu.so.0:_ZN6oneapi3mkl6lapack6mklcpu5unmtrERN2cl4sycl5queueENS0_4sideENS0_4uploENS0_9transposeEllPSt7complexIdElSC_SC_lSC_lRKSt6vectorINS4_5eventESaISE_EE
libonemkl_lapack_mklcpu.so.0:_ZN6oneapi3mkl6lapack6mklcpu5unmtrERN2cl4sycl5queueENS0_4sideENS0_4uploENS0_9transposeEllPSt7complexIfElSC_SC_lSC_lRKSt6vectorINS4_5eventESaISE_EE
libonemkl_lapack_mklcpu.so.0:_ZN6oneapi3mkl6lapack6mklcpu5unmtrERN2cl4sycl5queueENS0_4sideENS0_4uploENS0_9transposeEllRNS4_6bufferISt7complexIdELi1ENS4_6detail17aligned_allocatorIcEEvEElSH_SH_lSH_l
libonemkl_lapack_mklcpu.so.0:_ZN6oneapi3mkl6lapack6mklcpu5unmtrERN2cl4sycl5queueENS0_4sideENS0_4uploENS0_9transposeEllRNS4_6bufferISt7complexIfELi1ENS4_6detail17aligned_allocatorIcEEvEElSH_SH_lSH_l
libonemkl_lapack_mklcpu.so.0:_ZN9__gnu_cxx15__concat_size_tEPcmm
libonemkl_lapack_mklcpu.so.0:_ZN9__gnu_cxx15__snprintf_liteEPcmPKcP13__va_list_tag
libonemkl_lapack_mklcpu.so.0:_ZN9__gnu_cxx20recursive_init_errorC1Ev
libonemkl_lapack_mklcpu.so.0:_ZN9__gnu_cxx20recursive_init_errorC2Ev
libonemkl_lapack_mklcpu.so.0:_ZN9__gnu_cxx20recursive_init_errorD0Ev
libonemkl_lapack_mklcpu.so.0:_ZN9__gnu_cxx20recursive_init_errorD1Ev
libonemkl_lapack_mklcpu.so.0:_ZN9__gnu_cxx20recursive_init_errorD2Ev
libonemkl_lapack_mklcpu.so.0:_ZN9__gnu_cxx26__throw_insufficient_spaceEPKcS1_
libonemkl_lapack_mklcpu.so.0:_ZN9__gnu_cxx27__verbose_terminate_handlerEv
libonemkl_lapack_mklcpu.so.0:_ZN9__gnu_cxx9__freeresEv
libonemkl_lapack_mklcpu.so.0:_ZNK10__cxxabiv117__class_type_info10__do_catchEPKSt9type_infoPPvj
libonemkl_lapack_mklcpu.so.0:_ZNK10__cxxabiv117__class_type_info11__do_upcastEPKS0_PKvRNS0_15__upcast_resultE
libonemkl_lapack_mklcpu.so.0:_ZNK10__cxxabiv117__class_type_info11__do_upcastEPKS0_PPv
libonemkl_lapack_mklcpu.so.0:_ZNK10__cxxabiv117__class_type_info12__do_dyncastElNS0_10__sub_kindEPKS0_PKvS3_S5_RNS0_16__dyncast_resultE
libonemkl_lapack_mklcpu.so.0:_ZNK10__cxxabiv117__class_type_info20__do_find_public_srcElPKvPKS0_S2_
libonemkl_lapack_mklcpu.so.0:_ZNK10__cxxabiv117__pbase_type_info10__do_catchEPKSt9type_infoPPvj
libonemkl_lapack_mklcpu.so.0:_ZNK10__cxxabiv119__pointer_type_info14__is_pointer_pEv
libonemkl_lapack_mklcpu.so.0:_ZNK10__cxxabiv119__pointer_type_info15__pointer_catchEPKNS_17__pbase_type_infoEPPvj
libonemkl_lapack_mklcpu.so.0:_ZNK10__cxxabiv120__function_type_info15__is_function_pEv
libonemkl_lapack_mklcpu.so.0:_ZNK10__cxxabiv120__si_class_type_info11__do_upcastEPKNS_17__class_type_infoEPKvRNS1_15__upcast_resultE
libonemkl_lapack_mklcpu.so.0:_ZNK10__cxxabiv120__si_class_type_info12__do_dyncastElNS_17__class_type_info10__sub_kindEPKS1_PKvS4_S6_RNS1_16__dyncast_resultE
libonemkl_lapack_mklcpu.so.0:_ZNK10__cxxabiv120__si_class_type_info20__do_find_public_srcElPKvPKNS_17__class_type_infoES2_
libonemkl_lapack_mklcpu.so.0:_ZNK10__cxxabiv121__vmi_class_type_info11__do_upcastEPKNS_17__class_type_infoEPKvRNS1_15__upcast_resultE
libonemkl_lapack_mklcpu.so.0:_ZNK10__cxxabiv121__vmi_class_type_info12__do_dyncastElNS_17__class_type_info10__sub_kindEPKS1_PKvS4_S6_RNS1_16__dyncast_resultE
libonemkl_lapack_mklcpu.so.0:_ZNK10__cxxabiv121__vmi_class_type_info20__do_find_public_srcElPKvPKNS_17__class_type_infoES2_
libonemkl_lapack_mklcpu.so.0:_ZNK10__cxxabiv129__pointer_to_member_type_info15__pointer_catchEPKNS_17__pbase_type_infoEPPvj
libonemkl_lapack_mklcpu.so.0:_ZNKSt10bad_typeid4whatEv
libonemkl_lapack_mklcpu.so.0:_ZNKSt10error_code23default_error_conditionEv
libonemkl_lapack_mklcpu.so.0:_ZNKSt11__timepunctIcE6_M_putEPcmPKcPK2tm
libonemkl_lapack_mklcpu.so.0:_ZNKSt11__timepunctIwE6_M_putEPwmPKwPK2tm
libonemkl_lapack_mklcpu.so.0:_ZNKSt11logic_error4whatEv
libonemkl_lapack_mklcpu.so.0:_ZNKSt12__basic_fileIcE7is_openEv
libonemkl_lapack_mklcpu.so.0:_ZNKSt13bad_exception4whatEv
libonemkl_lapack_mklcpu.so.0:_ZNKSt13random_device13_M_getentropyEv
libonemkl_lapack_mklcpu.so.0:_ZNKSt13runtime_error4whatEv
libonemkl_lapack_mklcpu.so.0:_ZNKSt15__exception_ptr13exception_ptr20__cxa_exception_typeEv
libonemkl_lapack_mklcpu.so.0:_ZNKSt15__exception_ptr13exception_ptr6_M_getEv
libonemkl_lapack_mklcpu.so.0:_ZNKSt15__exception_ptr13exception_ptrcvMS0_FvvEEv
libonemkl_lapack_mklcpu.so.0:_ZNKSt15__exception_ptr13exception_ptrntEv
libonemkl_lapack_mklcpu.so.0:_ZNKSt17bad_function_call4whatEv
libonemkl_lapack_mklcpu.so.0:_ZNKSt19__codecvt_utf8_baseIDiE10do_unshiftER11__mbstate_tPcS3_RS3_
libonemkl_lapack_mklcpu.so.0:_ZNKSt19__codecvt_utf8_baseIDiE11do_encodingEv
libonemkl_lapack_mklcpu.so.0:_ZNKSt19__codecvt_utf8_baseIDiE13do_max_lengthEv
libonemkl_lapack_mklcpu.so.0:_ZNKSt19__codecvt_utf8_baseIDiE16do_always_noconvEv
libonemkl_lapack_mklcpu.so.0:_ZNKSt19__codecvt_utf8_baseIDiE5do_inER11__mbstate_tPKcS4_RS4_PDiS6_RS6_
libonemkl_lapack_mklcpu.so.0:_ZNKSt19__codecvt_utf8_baseIDiE6do_outER11__mbstate_tPKDiS4_RS4_PcS6_RS6_
libonemkl_lapack_mklcpu.so.0:_ZNKSt19__codecvt_utf8_baseIDiE9do_lengthER11__mbstate_tPKcS4_m
libonemkl_lapack_mklcpu.so.0:_ZNKSt19__codecvt_utf8_baseIDsE10do_unshiftER11__mbstate_tPcS3_RS3_
libonemkl_lapack_mklcpu.so.0:_ZNKSt19__codecvt_utf8_baseIDsE11do_encodingEv
libonemkl_lapack_mklcpu.so.0:_ZNKSt19__codecvt_utf8_baseIDsE13do_max_lengthEv
libonemkl_lapack_mklcpu.so.0:_ZNKSt19__codecvt_utf8_baseIDsE16do_always_noconvEv
libonemkl_lapack_mklcpu.so.0:_ZNKSt19__codecvt_utf8_baseIDsE5do_inER11__mbstate_tPKcS4_RS4_PDsS6_RS6_
libonemkl_lapack_mklcpu.so.0:_ZNKSt19__codecvt_utf8_baseIDsE6do_outER11__mbstate_tPKDsS4_RS4_PcS6_RS6_
libonemkl_lapack_mklcpu.so.0:_ZNKSt19__codecvt_utf8_baseIDsE9do_lengthER11__mbstate_tPKcS4_m
libonemkl_lapack_mklcpu.so.0:_ZNKSt19__codecvt_utf8_baseIwE10do_unshiftER11__mbstate_tPcS3_RS3_
libonemkl_lapack_mklcpu.so.0:_ZNKSt19__codecvt_utf8_baseIwE11do_encodingEv
libonemkl_lapack_mklcpu.so.0:_ZNKSt19__codecvt_utf8_baseIwE13do_max_lengthEv
libonemkl_lapack_mklcpu.so.0:_ZNKSt19__codecvt_utf8_baseIwE16do_always_noconvEv
libonemkl_lapack_mklcpu.so.0:_ZNKSt19__codecvt_utf8_baseIwE5do_inER11__mbstate_tPKcS4_RS4_PwS6_RS6_
libonemkl_lapack_mklcpu.so.0:_ZNKSt19__codecvt_utf8_baseIwE6do_outER11__mbstate_tPKwS4_RS4_PcS6_RS6_
libonemkl_lapack_mklcpu.so.0:_ZNKSt19__codecvt_utf8_baseIwE9do_lengthER11__mbstate_tPKcS4_m
libonemkl_lapack_mklcpu.so.0:_ZNKSt19__iosfail_type_info11__do_upcastEPKN10__cxxabiv117__class_type_infoEPPv
libonemkl_lapack_mklcpu.so.0:_ZNKSt20__codecvt_utf16_baseIDiE10do_unshiftER11__mbstate_tPcS3_RS3_
libonemkl_lapack_mklcpu.so.0:_ZNKSt20__codecvt_utf16_baseIDiE11do_encodingEv
libonemkl_lapack_mklcpu.so.0:_ZNKSt20__codecvt_utf16_baseIDiE13do_max_lengthEv
libonemkl_lapack_mklcpu.so.0:_ZNKSt20__codecvt_utf16_baseIDiE16do_always_noconvEv
libonemkl_lapack_mklcpu.so.0:_ZNKSt20__codecvt_utf16_baseIDiE5do_inER11__mbstate_tPKcS4_RS4_PDiS6_RS6_
libonemkl_lapack_mklcpu.so.0:_ZNKSt20__codecvt_utf16_baseIDiE6do_outER11__mbstate_tPKDiS4_RS4_PcS6_RS6_
libonemkl_lapack_mklcpu.so.0:_ZNKSt20__codecvt_utf16_baseIDiE9do_lengthER11__mbstate_tPKcS4_m
libonemkl_lapack_mklcpu.so.0:_ZNKSt20__codecvt_utf16_baseIDsE10do_unshiftER11__mbstate_tPcS3_RS3_
libonemkl_lapack_mklcpu.so.0:_ZNKSt20__codecvt_utf16_baseIDsE11do_encodingEv
libonemkl_lapack_mklcpu.so.0:_ZNKSt20__codecvt_utf16_baseIDsE13do_max_lengthEv
libonemkl_lapack_mklcpu.so.0:_ZNKSt20__codecvt_utf16_baseIDsE16do_always_noconvEv
libonemkl_lapack_mklcpu.so.0:_ZNKSt20__codecvt_utf16_baseIDsE5do_inER11__mbstate_tPKcS4_RS4_PDsS6_RS6_
libonemkl_lapack_mklcpu.so.0:_ZNKSt20__codecvt_utf16_baseIDsE6do_outER11__mbstate_tPKDsS4_RS4_PcS6_RS6_
libonemkl_lapack_mklcpu.so.0:_ZNKSt20__codecvt_utf16_baseIDsE9do_lengthER11__mbstate_tPKcS4_m
libonemkl_lapack_mklcpu.so.0:_ZNKSt20__codecvt_utf16_baseIwE10do_unshiftER11__mbstate_tPcS3_RS3_
libonemkl_lapack_mklcpu.so.0:_ZNKSt20__codecvt_utf16_baseIwE11do_encodingEv
libonemkl_lapack_mklcpu.so.0:_ZNKSt20__codecvt_utf16_baseIwE13do_max_lengthEv
libonemkl_lapack_mklcpu.so.0:_ZNKSt20__codecvt_utf16_baseIwE16do_always_noconvEv
libonemkl_lapack_mklcpu.so.0:_ZNKSt20__codecvt_utf16_baseIwE5do_inER11__mbstate_tPKcS4_RS4_PwS6_RS6_
libonemkl_lapack_mklcpu.so.0:_ZNKSt20__codecvt_utf16_baseIwE6do_outER11__mbstate_tPKwS4_RS4_PcS6_RS6_
libonemkl_lapack_mklcpu.so.0:_ZNKSt20__codecvt_utf16_baseIwE9do_lengthER11__mbstate_tPKcS4_m
libonemkl_lapack_mklcpu.so.0:_ZNKSt20bad_array_new_length4whatEv
libonemkl_lapack_mklcpu.so.0:_ZNKSt25__codecvt_utf8_utf16_baseIDiE10do_unshiftER11__mbstate_tPcS3_RS3_
libonemkl_lapack_mklcpu.so.0:_ZNKSt25__codecvt_utf8_utf16_baseIDiE11do_encodingEv
libonemkl_lapack_mklcpu.so.0:_ZNKSt25__codecvt_utf8_utf16_baseIDiE13do_max_lengthEv
libonemkl_lapack_mklcpu.so.0:_ZNKSt25__codecvt_utf8_utf16_baseIDiE16do_always_noconvEv
libonemkl_lapack_mklcpu.so.0:_ZNKSt25__codecvt_utf8_utf16_baseIDiE5do_inER11__mbstate_tPKcS4_RS4_PDiS6_RS6_
libonemkl_lapack_mklcpu.so.0:_ZNKSt25__codecvt_utf8_utf16_baseIDiE6do_outER11__mbstate_tPKDiS4_RS4_PcS6_RS6_
libonemkl_lapack_mklcpu.so.0:_ZNKSt25__codecvt_utf8_utf16_baseIDiE9do_lengthER11__mbstate_tPKcS4_m
libonemkl_lapack_mklcpu.so.0:_ZNKSt25__codecvt_utf8_utf16_baseIDsE10do_unshiftER11__mbstate_tPcS3_RS3_
libonemkl_lapack_mklcpu.so.0:_ZNKSt25__codecvt_utf8_utf16_baseIDsE11do_encodingEv
libonemkl_lapack_mklcpu.so.0:_ZNKSt25__codecvt_utf8_utf16_baseIDsE13do_max_lengthEv
libonemkl_lapack_mklcpu.so.0:_ZNKSt25__codecvt_utf8_utf16_baseIDsE16do_always_noconvEv
libonemkl_lapack_mklcpu.so.0:_ZNKSt25__codecvt_utf8_utf16_baseIDsE5do_inER11__mbstate_tPKcS4_RS4_PDsS6_RS6_
libonemkl_lapack_mklcpu.so.0:_ZNKSt25__codecvt_utf8_utf16_baseIDsE6do_outER11__mbstate_tPKDsS4_RS4_PcS6_RS6_
libonemkl_lapack_mklcpu.so.0:_ZNKSt25__codecvt_utf8_utf16_baseIDsE9do_lengthER11__mbstate_tPKcS4_m
libonemkl_lapack_mklcpu.so.0:_ZNKSt25__codecvt_utf8_utf16_baseIwE10do_unshiftER11__mbstate_tPcS3_RS3_
libonemkl_lapack_mklcpu.so.0:_ZNKSt25__codecvt_utf8_utf16_baseIwE11do_encodingEv
libonemkl_lapack_mklcpu.so.0:_ZNKSt25__codecvt_utf8_utf16_baseIwE13do_max_lengthEv
libonemkl_lapack_mklcpu.so.0:_ZNKSt25__codecvt_utf8_utf16_baseIwE16do_always_noconvEv
libonemkl_lapack_mklcpu.so.0:_ZNKSt25__codecvt_utf8_utf16_baseIwE5do_inER11__mbstate_tPKcS4_RS4_PwS6_RS6_
libonemkl_lapack_mklcpu.so.0:_ZNKSt25__codecvt_utf8_utf16_baseIwE6do_outER11__mbstate_tPKwS4_RS4_PcS6_RS6_
libonemkl_lapack_mklcpu.so.0:_ZNKSt25__codecvt_utf8_utf16_baseIwE9do_lengthER11__mbstate_tPKcS4_m
libonemkl_lapack_mklcpu.so.0:_ZNKSt3_V214error_category10_M_messageB5cxx11Ei
libonemkl_lapack_mklcpu.so.0:_ZNKSt3_V214error_category10_M_messageEi
libonemkl_lapack_mklcpu.so.0:_ZNKSt3_V214error_category10equivalentERKSt10error_codei
libonemkl_lapack_mklcpu.so.0:_ZNKSt3_V214error_category10equivalentEiRKSt15error_condition
libonemkl_lapack_mklcpu.so.0:_ZNKSt3_V214error_category23default_error_conditionEi
libonemkl_lapack_mklcpu.so.0:_ZNKSt5ctypeIcE10do_tolowerEPcPKc
libonemkl_lapack_mklcpu.so.0:_ZNKSt5ctypeIcE10do_tolowerEc
libonemkl_lapack_mklcpu.so.0:_ZNKSt5ctypeIcE10do_toupperEPcPKc
libonemkl_lapack_mklcpu.so.0:_ZNKSt5ctypeIcE10do_toupperEc
libonemkl_lapack_mklcpu.so.0:_ZNKSt5ctypeIcE13_M_widen_initEv
libonemkl_lapack_mklcpu.so.0:_ZNKSt5ctypeIcE14_M_narrow_initEv
libonemkl_lapack_mklcpu.so.0:_ZNKSt5ctypeIwE10do_scan_isEtPKwS2_
libonemkl_lapack_mklcpu.so.0:_ZNKSt5ctypeIwE10do_tolowerEPwPKw
libonemkl_lapack_mklcpu.so.0:_ZNKSt5ctypeIwE10do_tolowerEw
libonemkl_lapack_mklcpu.so.0:_ZNKSt5ctypeIwE10do_toupperEPwPKw
libonemkl_lapack_mklcpu.so.0:_ZNKSt5ctypeIwE10do_toupperEw
libonemkl_lapack_mklcpu.so.0:_ZNKSt5ctypeIwE11do_scan_notEtPKwS2_
libonemkl_lapack_mklcpu.so.0:_ZNKSt5ctypeIwE19_M_convert_to_wmaskEt
libonemkl_lapack_mklcpu.so.0:_ZNKSt5ctypeIwE5do_isEPKwS2_Pt
libonemkl_lapack_mklcpu.so.0:_ZNKSt5ctypeIwE5do_isEtw
libonemkl_lapack_mklcpu.so.0:_ZNKSt5ctypeIwE8do_widenEPKcS2_Pw
libonemkl_lapack_mklcpu.so.0:_ZNKSt5ctypeIwE8do_widenEc
libonemkl_lapack_mklcpu.so.0:_ZNKSt5ctypeIwE9do_narrowEPKwS2_cPc
libonemkl_lapack_mklcpu.so.0:_ZNKSt5ctypeIwE9do_narrowEwc
libonemkl_lapack_mklcpu.so.0:_ZNKSt6locale2id5_M_idEv
libonemkl_lapack_mklcpu.so.0:_ZNKSt6locale4nameB5cxx11Ev
libonemkl_lapack_mklcpu.so.0:_ZNKSt6locale4nameEv
libonemkl_lapack_mklcpu.so.0:_ZNKSt6locale5facet11_M_cow_shimEPKNS_2idE
libonemkl_lapack_mklcpu.so.0:_ZNKSt6locale5facet11_M_sso_shimEPKNS_2idE
libonemkl_lapack_mklcpu.so.0:_ZNKSt6localeeqERKS_
libonemkl_lapack_mklcpu.so.0:_ZNKSt7__cxx117collateIcE10_M_compareEPKcS3_
libonemkl_lapack_mklcpu.so.0:_ZNKSt7__cxx117collateIcE12_M_transformEPcPKcm
libonemkl_lapack_mklcpu.so.0:_ZNKSt7__cxx117collateIwE10_M_compareEPKwS3_
libonemkl_lapack_mklcpu.so.0:_ZNKSt7__cxx117collateIwE12_M_transformEPwPKwm
libonemkl_lapack_mklcpu.so.0:_ZNKSt7__cxx118messagesIcE6do_getEiiiRKNS_12basic_stringIcSt11char_traitsIcESaIcEEE
libonemkl_lapack_mklcpu.so.0:_ZNKSt7__cxx118messagesIcE7do_openERKNS_12basic_stringIcSt11char_traitsIcESaIcEEERKSt6locale
libonemkl_lapack_mklcpu.so.0:_ZNKSt7__cxx118messagesIcE8do_closeEi
libonemkl_lapack_mklcpu.so.0:_ZNKSt7__cxx118messagesIwE6do_getEiiiRKNS_12basic_stringIwSt11char_traitsIwESaIwEEE
libonemkl_lapack_mklcpu.so.0:_ZNKSt7__cxx118messagesIwE7do_openERKNS_12basic_stringIcSt11char_traitsIcESaIcEEERKSt6locale
libonemkl_lapack_mklcpu.so.0:_ZNKSt7__cxx118messagesIwE8do_closeEi
libonemkl_lapack_mklcpu.so.0:_ZNKSt7codecvtIDiDu11__mbstate_tE10do_unshiftERS0_PDuS3_RS3_
libonemkl_lapack_mklcpu.so.0:_ZNKSt7codecvtIDiDu11__mbstate_tE11do_encodingEv
libonemkl_lapack_mklcpu.so.0:_ZNKSt7codecvtIDiDu11__mbstate_tE13do_max_lengthEv
libonemkl_lapack_mklcpu.so.0:_ZNKSt7codecvtIDiDu11__mbstate_tE16do_always_noconvEv
libonemkl_lapack_mklcpu.so.0:_ZNKSt7codecvtIDiDu11__mbstate_tE5do_inERS0_PKDuS4_RS4_PDiS6_RS6_
libonemkl_lapack_mklcpu.so.0:_ZNKSt7codecvtIDiDu11__mbstate_tE6do_outERS0_PKDiS4_RS4_PDuS6_RS6_
libonemkl_lapack_mklcpu.so.0:_ZNKSt7codecvtIDiDu11__mbstate_tE9do_lengthERS0_PKDuS4_m
libonemkl_lapack_mklcpu.so.0:_ZNKSt7codecvtIDic11__mbstate_tE10do_unshiftERS0_PcS3_RS3_
libonemkl_lapack_mklcpu.so.0:_ZNKSt7codecvtIDic11__mbstate_tE11do_encodingEv
libonemkl_lapack_mklcpu.so.0:_ZNKSt7codecvtIDic11__mbstate_tE13do_max_lengthEv
libonemkl_lapack_mklcpu.so.0:_ZNKSt7codecvtIDic11__mbstate_tE16do_always_noconvEv
libonemkl_lapack_mklcpu.so.0:_ZNKSt7codecvtIDic11__mbstate_tE5do_inERS0_PKcS4_RS4_PDiS6_RS6_
libonemkl_lapack_mklcpu.so.0:_ZNKSt7codecvtIDic11__mbstate_tE6do_outERS0_PKDiS4_RS4_PcS6_RS6_
libonemkl_lapack_mklcpu.so.0:_ZNKSt7codecvtIDic11__mbstate_tE9do_lengthERS0_PKcS4_m
libonemkl_lapack_mklcpu.so.0:_ZNKSt7codecvtIDsDu11__mbstate_tE10do_unshiftERS0_PDuS3_RS3_
libonemkl_lapack_mklcpu.so.0:_ZNKSt7codecvtIDsDu11__mbstate_tE11do_encodingEv
libonemkl_lapack_mklcpu.so.0:_ZNKSt7codecvtIDsDu11__mbstate_tE13do_max_lengthEv
libonemkl_lapack_mklcpu.so.0:_ZNKSt7codecvtIDsDu11__mbstate_tE16do_always_noconvEv
libonemkl_lapack_mklcpu.so.0:_ZNKSt7codecvtIDsDu11__mbstate_tE5do_inERS0_PKDuS4_RS4_PDsS6_RS6_
libonemkl_lapack_mklcpu.so.0:_ZNKSt7codecvtIDsDu11__mbstate_tE6do_outERS0_PKDsS4_RS4_PDuS6_RS6_
libonemkl_lapack_mklcpu.so.0:_ZNKSt7codecvtIDsDu11__mbstate_tE9do_lengthERS0_PKDuS4_m
libonemkl_lapack_mklcpu.so.0:_ZNKSt7codecvtIDsc11__mbstate_tE10do_unshiftERS0_PcS3_RS3_
libonemkl_lapack_mklcpu.so.0:_ZNKSt7codecvtIDsc11__mbstate_tE11do_encodingEv
libonemkl_lapack_mklcpu.so.0:_ZNKSt7codecvtIDsc11__mbstate_tE13do_max_lengthEv
libonemkl_lapack_mklcpu.so.0:_ZNKSt7codecvtIDsc11__mbstate_tE16do_always_noconvEv
libonemkl_lapack_mklcpu.so.0:_ZNKSt7codecvtIDsc11__mbstate_tE5do_inERS0_PKcS4_RS4_PDsS6_RS6_
libonemkl_lapack_mklcpu.so.0:_ZNKSt7codecvtIDsc11__mbstate_tE6do_outERS0_PKDsS4_RS4_PcS6_RS6_
libonemkl_lapack_mklcpu.so.0:_ZNKSt7codecvtIDsc11__mbstate_tE9do_lengthERS0_PKcS4_m
libonemkl_lapack_mklcpu.so.0:_ZNKSt7codecvtIcc11__mbstate_tE10do_unshiftERS0_PcS3_RS3_
libonemkl_lapack_mklcpu.so.0:_ZNKSt7codecvtIcc11__mbstate_tE11do_encodingEv
libonemkl_lapack_mklcpu.so.0:_ZNKSt7codecvtIcc11__mbstate_tE13do_max_lengthEv
libonemkl_lapack_mklcpu.so.0:_ZNKSt7codecvtIcc11__mbstate_tE16do_always_noconvEv
libonemkl_lapack_mklcpu.so.0:_ZNKSt7codecvtIcc11__mbstate_tE5do_inERS0_PKcS4_RS4_PcS6_RS6_
libonemkl_lapack_mklcpu.so.0:_ZNKSt7codecvtIcc11__mbstate_tE6do_outERS0_PKcS4_RS4_PcS6_RS6_
libonemkl_lapack_mklcpu.so.0:_ZNKSt7codecvtIcc11__mbstate_tE9do_lengthERS0_PKcS4_m
libonemkl_lapack_mklcpu.so.0:_ZNKSt7codecvtIwc11__mbstate_tE10do_unshiftERS0_PcS3_RS3_
libonemkl_lapack_mklcpu.so.0:_ZNKSt7codecvtIwc11__mbstate_tE11do_encodingEv
libonemkl_lapack_mklcpu.so.0:_ZNKSt7codecvtIwc11__mbstate_tE13do_max_lengthEv
libonemkl_lapack_mklcpu.so.0:_ZNKSt7codecvtIwc11__mbstate_tE16do_always_noconvEv
libonemkl_lapack_mklcpu.so.0:_ZNKSt7codecvtIwc11__mbstate_tE5do_inERS0_PKcS4_RS4_PwS6_RS6_
libonemkl_lapack_mklcpu.so.0:_ZNKSt7codecvtIwc11__mbstate_tE6do_outERS0_PKwS4_RS4_PcS6_RS6_
libonemkl_lapack_mklcpu.so.0:_ZNKSt7codecvtIwc11__mbstate_tE9do_lengthERS0_PKcS4_m
libonemkl_lapack_mklcpu.so.0:_ZNKSt7collateIcE10_M_compareEPKcS2_
libonemkl_lapack_mklcpu.so.0:_ZNKSt7collateIcE12_M_transformEPcPKcm
libonemkl_lapack_mklcpu.so.0:_ZNKSt7collateIwE10_M_compareEPKwS2_
libonemkl_lapack_mklcpu.so.0:_ZNKSt7collateIwE12_M_transformEPwPKwm
libonemkl_lapack_mklcpu.so.0:_ZNKSt8Catalogs6_M_getEi
libonemkl_lapack_mklcpu.so.0:_ZNKSt8__detail20_Prime_rehash_policy11_M_next_bktEm
libonemkl_lapack_mklcpu.so.0:_ZNKSt8__detail20_Prime_rehash_policy14_M_need_rehashEmmm
libonemkl_lapack_mklcpu.so.0:_ZNKSt8bad_cast4whatEv
libonemkl_lapack_mklcpu.so.0:_ZNKSt8ios_base7failure4whatEv
libonemkl_lapack_mklcpu.so.0:_ZNKSt8ios_base7failureB5cxx114whatEv
libonemkl_lapack_mklcpu.so.0:_ZNKSt8messagesIcE6do_getEiiiRKSs
libonemkl_lapack_mklcpu.so.0:_ZNKSt8messagesIcE7do_openERKSsRKSt6locale
libonemkl_lapack_mklcpu.so.0:_ZNKSt8messagesIcE8do_closeEi
libonemkl_lapack_mklcpu.so.0:_ZNKSt8messagesIwE6do_getEiiiRKSbIwSt11char_traitsIwESaIwEE
libonemkl_lapack_mklcpu.so.0:_ZNKSt8messagesIwE7do_openERKSsRKSt6locale
libonemkl_lapack_mklcpu.so.0:_ZNKSt8messagesIwE8do_closeEi
libonemkl_lapack_mklcpu.so.0:_ZNKSt9bad_alloc4whatEv
libonemkl_lapack_mklcpu.so.0:_ZNKSt9exception4whatEv
libonemkl_lapack_mklcpu.so.0:_ZNKSt9type_info10__do_catchEPKS_PPvj
libonemkl_lapack_mklcpu.so.0:_ZNKSt9type_info11__do_upcastEPKN10__cxxabiv117__class_type_infoEPPv
libonemkl_lapack_mklcpu.so.0:_ZNKSt9type_info14__is_pointer_pEv
libonemkl_lapack_mklcpu.so.0:_ZNKSt9type_info15__is_function_pEv
libonemkl_lapack_mklcpu.so.0:_ZNSi6ignoreEl
libonemkl_lapack_mklcpu.so.0:_ZNSi6ignoreEli
libonemkl_lapack_mklcpu.so.0:_ZNSi7getlineEPclc
libonemkl_lapack_mklcpu.so.0:_ZNSt10__num_base15_S_format_floatERKSt8ios_basePcc
libonemkl_lapack_mklcpu.so.0:_ZNSt10bad_typeidD0Ev
libonemkl_lapack_mklcpu.so.0:_ZNSt10bad_typeidD1Ev
libonemkl_lapack_mklcpu.so.0:_ZNSt10bad_typeidD2Ev
libonemkl_lapack_mklcpu.so.0:_ZNSt10money_base20_S_construct_patternEccc
libonemkl_lapack_mklcpu.so.0:_ZNSt10moneypunctIcLb0EE24_M_initialize_moneypunctEP15__locale_structPKc
libonemkl_lapack_mklcpu.so.0:_ZNSt10moneypunctIcLb0EED0Ev
libonemkl_lapack_mklcpu.so.0:_ZNSt10moneypunctIcLb0EED1Ev
libonemkl_lapack_mklcpu.so.0:_ZNSt10moneypunctIcLb0EED2Ev
libonemkl_lapack_mklcpu.so.0:_ZNSt10moneypunctIcLb1EE24_M_initialize_moneypunctEP15__locale_structPKc
libonemkl_lapack_mklcpu.so.0:_ZNSt10moneypunctIcLb1EED0Ev
libonemkl_lapack_mklcpu.so.0:_ZNSt10moneypunctIcLb1EED1Ev
libonemkl_lapack_mklcpu.so.0:_ZNSt10moneypunctIcLb1EED2Ev
libonemkl_lapack_mklcpu.so.0:_ZNSt10moneypunctIwLb0EE24_M_initialize_moneypunctEP15__locale_structPKc
libonemkl_lapack_mklcpu.so.0:_ZNSt10moneypunctIwLb0EED0Ev
libonemkl_lapack_mklcpu.so.0:_ZNSt10moneypunctIwLb0EED1Ev
libonemkl_lapack_mklcpu.so.0:_ZNSt10moneypunctIwLb0EED2Ev
libonemkl_lapack_mklcpu.so.0:_ZNSt10moneypunctIwLb1EE24_M_initialize_moneypunctEP15__locale_structPKc
libonemkl_lapack_mklcpu.so.0:_ZNSt10moneypunctIwLb1EED0Ev
libonemkl_lapack_mklcpu.so.0:_ZNSt10moneypunctIwLb1EED1Ev
libonemkl_lapack_mklcpu.so.0:_ZNSt10moneypunctIwLb1EED2Ev
libonemkl_lapack_mklcpu.so.0:_ZNSt11__timepunctIcE23_M_initialize_timepunctEP15__locale_struct
libonemkl_lapack_mklcpu.so.0:_ZNSt11__timepunctIwE23_M_initialize_timepunctEP15__locale_struct
libonemkl_lapack_mklcpu.so.0:_ZNSt11logic_errorC1EOS_
libonemkl_lapack_mklcpu.so.0:_ZNSt11logic_errorC1EPKc
libonemkl_lapack_mklcpu.so.0:_ZNSt11logic_errorC1ERKNSt7__cxx1112basic_stringIcSt11char_traitsIcESaIcEEE
libonemkl_lapack_mklcpu.so.0:_ZNSt11logic_errorC1ERKS_
libonemkl_lapack_mklcpu.so.0:_ZNSt11logic_errorC1ERKSs
libonemkl_lapack_mklcpu.so.0:_ZNSt11logic_errorC2EOS_
libonemkl_lapack_mklcpu.so.0:_ZNSt11logic_errorC2EPKc
libonemkl_lapack_mklcpu.so.0:_ZNSt11logic_errorC2ERKNSt7__cxx1112basic_stringIcSt11char_traitsIcESaIcEEE
libonemkl_lapack_mklcpu.so.0:_ZNSt11logic_errorC2ERKS_
libonemkl_lapack_mklcpu.so.0:_ZNSt11logic_errorC2ERKSs
libonemkl_lapack_mklcpu.so.0:_ZNSt11logic_errorD0Ev
libonemkl_lapack_mklcpu.so.0:_ZNSt11logic_errorD1Ev
libonemkl_lapack_mklcpu.so.0:_ZNSt11logic_errorD2Ev
libonemkl_lapack_mklcpu.so.0:_ZNSt11logic_erroraSEOS_
libonemkl_lapack_mklcpu.so.0:_ZNSt11logic_erroraSERKS_
libonemkl_lapack_mklcpu.so.0:_ZNSt11range_errorC1EPKc
libonemkl_lapack_mklcpu.so.0:_ZNSt11range_errorC1ERKNSt7__cxx1112basic_stringIcSt11char_traitsIcESaIcEEE
libonemkl_lapack_mklcpu.so.0:_ZNSt11range_errorC1ERKSs
libonemkl_lapack_mklcpu.so.0:_ZNSt11range_errorC2EPKc
libonemkl_lapack_mklcpu.so.0:_ZNSt11range_errorC2ERKNSt7__cxx1112basic_stringIcSt11char_traitsIcESaIcEEE
libonemkl_lapack_mklcpu.so.0:_ZNSt11range_errorC2ERKSs
libonemkl_lapack_mklcpu.so.0:_ZNSt11range_errorD0Ev
libonemkl_lapack_mklcpu.so.0:_ZNSt11range_errorD1Ev
libonemkl_lapack_mklcpu.so.0:_ZNSt11range_errorD2Ev
libonemkl_lapack_mklcpu.so.0:_ZNSt11this_thread11__sleep_forENSt6chrono8durationIlSt5ratioILl1ELl1EEEENS1_IlS2_ILl1ELl1000000000EEEE
libonemkl_lapack_mklcpu.so.0:_ZNSt12__basic_fileIcE2fdEv
libonemkl_lapack_mklcpu.so.0:_ZNSt12__basic_fileIcE4fileEv
libonemkl_lapack_mklcpu.so.0:_ZNSt12__basic_fileIcE4openEPKcSt13_Ios_Openmodei
libonemkl_lapack_mklcpu.so.0:_ZNSt12__basic_fileIcE4syncEv
libonemkl_lapack_mklcpu.so.0:_ZNSt12__basic_fileIcE5closeEv
libonemkl_lapack_mklcpu.so.0:_ZNSt12__basic_fileIcE6xsgetnEPcl
libonemkl_lapack_mklcpu.so.0:_ZNSt12__basic_fileIcE6xsputnEPKcl
libonemkl_lapack_mklcpu.so.0:_ZNSt12__basic_fileIcE7seekoffElSt12_Ios_Seekdir
libonemkl_lapack_mklcpu.so.0:_ZNSt12__basic_fileIcE8sys_openEP8_IO_FILESt13_Ios_Openmode
libonemkl_lapack_mklcpu.so.0:_ZNSt12__basic_fileIcE8sys_openEiSt13_Ios_Openmode
libonemkl_lapack_mklcpu.so.0:_ZNSt12__basic_fileIcE8xsputn_2EPKclS2_l
libonemkl_lapack_mklcpu.so.0:_ZNSt12__basic_fileIcE9showmanycEv
libonemkl_lapack_mklcpu.so.0:_ZNSt12__basic_fileIcEC1EP15pthread_mutex_t
libonemkl_lapack_mklcpu.so.0:_ZNSt12__basic_fileIcEC2EP15pthread_mutex_t
libonemkl_lapack_mklcpu.so.0:_ZNSt12__basic_fileIcED1Ev
libonemkl_lapack_mklcpu.so.0:_ZNSt12__basic_fileIcED2Ev
libonemkl_lapack_mklcpu.so.0:_ZNSt12__cow_stringC1EOS_
libonemkl_lapack_mklcpu.so.0:_ZNSt12__cow_stringC1EPKcm
libonemkl_lapack_mklcpu.so.0:_ZNSt12__cow_stringC1ERKNSt7__cxx1112basic_stringIcSt11char_traitsIcESaIcEEE
libonemkl_lapack_mklcpu.so.0:_ZNSt12__cow_stringC1ERKS_
libonemkl_lapack_mklcpu.so.0:_ZNSt12__cow_stringC1ERKSs
libonemkl_lapack_mklcpu.so.0:_ZNSt12__cow_stringC1Ev
libonemkl_lapack_mklcpu.so.0:_ZNSt12__cow_stringC2EOS_
libonemkl_lapack_mklcpu.so.0:_ZNSt12__cow_stringC2EPKcm
libonemkl_lapack_mklcpu.so.0:_ZNSt12__cow_stringC2ERKNSt7__cxx1112basic_stringIcSt11char_traitsIcESaIcEEE
libonemkl_lapack_mklcpu.so.0:_ZNSt12__cow_stringC2ERKS_
libonemkl_lapack_mklcpu.so.0:_ZNSt12__cow_stringC2ERKSs
libonemkl_lapack_mklcpu.so.0:_ZNSt12__cow_stringC2Ev
libonemkl_lapack_mklcpu.so.0:_ZNSt12__cow_stringD1Ev
libonemkl_lapack_mklcpu.so.0:_ZNSt12__cow_stringD2Ev
libonemkl_lapack_mklcpu.so.0:_ZNSt12__cow_stringaSEOS_
libonemkl_lapack_mklcpu.so.0:_ZNSt12__cow_stringaSERKS_
libonemkl_lapack_mklcpu.so.0:_ZNSt12__sso_stringC1EOS_
libonemkl_lapack_mklcpu.so.0:_ZNSt12__sso_stringC1EPKcm
libonemkl_lapack_mklcpu.so.0:_ZNSt12__sso_stringC1ERKNSt7__cxx1112basic_stringIcSt11char_traitsIcESaIcEEE
libonemkl_lapack_mklcpu.so.0:_ZNSt12__sso_stringC1ERKS_
libonemkl_lapack_mklcpu.so.0:_ZNSt12__sso_stringC1ERKSs
libonemkl_lapack_mklcpu.so.0:_ZNSt12__sso_stringC1Ev
libonemkl_lapack_mklcpu.so.0:_ZNSt12__sso_stringC2EOS_
libonemkl_lapack_mklcpu.so.0:_ZNSt12__sso_stringC2EPKcm
libonemkl_lapack_mklcpu.so.0:_ZNSt12__sso_stringC2ERKNSt7__cxx1112basic_stringIcSt11char_traitsIcESaIcEEE
libonemkl_lapack_mklcpu.so.0:_ZNSt12__sso_stringC2ERKS_
libonemkl_lapack_mklcpu.so.0:_ZNSt12__sso_stringC2ERKSs
libonemkl_lapack_mklcpu.so.0:_ZNSt12__sso_stringC2Ev
libonemkl_lapack_mklcpu.so.0:_ZNSt12__sso_stringD1Ev
libonemkl_lapack_mklcpu.so.0:_ZNSt12__sso_stringD2Ev
libonemkl_lapack_mklcpu.so.0:_ZNSt12__sso_stringaSEOS_
libonemkl_lapack_mklcpu.so.0:_ZNSt12__sso_stringaSERKS_
libonemkl_lapack_mklcpu.so.0:_ZNSt12ctype_bynameIcEC1EPKcm
libonemkl_lapack_mklcpu.so.0:_ZNSt12ctype_bynameIcEC1ERKNSt7__cxx1112basic_stringIcSt11char_traitsIcESaIcEEEm
libonemkl_lapack_mklcpu.so.0:_ZNSt12ctype_bynameIcEC1ERKSsm
libonemkl_lapack_mklcpu.so.0:_ZNSt12ctype_bynameIcEC2EPKcm
libonemkl_lapack_mklcpu.so.0:_ZNSt12ctype_bynameIcEC2ERKNSt7__cxx1112basic_stringIcSt11char_traitsIcESaIcEEEm
libonemkl_lapack_mklcpu.so.0:_ZNSt12ctype_bynameIcEC2ERKSsm
libonemkl_lapack_mklcpu.so.0:_ZNSt12ctype_bynameIcED0Ev
libonemkl_lapack_mklcpu.so.0:_ZNSt12ctype_bynameIcED1Ev
libonemkl_lapack_mklcpu.so.0:_ZNSt12ctype_bynameIcED2Ev
libonemkl_lapack_mklcpu.so.0:_ZNSt12ctype_bynameIwEC1EPKcm
libonemkl_lapack_mklcpu.so.0:_ZNSt12ctype_bynameIwEC1ERKNSt7__cxx1112basic_stringIcSt11char_traitsIcESaIcEEEm
libonemkl_lapack_mklcpu.so.0:_ZNSt12ctype_bynameIwEC1ERKSsm
libonemkl_lapack_mklcpu.so.0:_ZNSt12ctype_bynameIwEC2EPKcm
libonemkl_lapack_mklcpu.so.0:_ZNSt12ctype_bynameIwEC2ERKNSt7__cxx1112basic_stringIcSt11char_traitsIcESaIcEEEm
libonemkl_lapack_mklcpu.so.0:_ZNSt12ctype_bynameIwEC2ERKSsm
libonemkl_lapack_mklcpu.so.0:_ZNSt12ctype_bynameIwED0Ev
libonemkl_lapack_mklcpu.so.0:_ZNSt12ctype_bynameIwED1Ev
libonemkl_lapack_mklcpu.so.0:_ZNSt12ctype_bynameIwED2Ev
libonemkl_lapack_mklcpu.so.0:_ZNSt12domain_errorC1EPKc
libonemkl_lapack_mklcpu.so.0:_ZNSt12domain_errorC1ERKNSt7__cxx1112basic_stringIcSt11char_traitsIcESaIcEEE
libonemkl_lapack_mklcpu.so.0:_ZNSt12domain_errorC1ERKSs
libonemkl_lapack_mklcpu.so.0:_ZNSt12domain_errorC2EPKc
libonemkl_lapack_mklcpu.so.0:_ZNSt12domain_errorC2ERKNSt7__cxx1112basic_stringIcSt11char_traitsIcESaIcEEE
libonemkl_lapack_mklcpu.so.0:_ZNSt12domain_errorC2ERKSs
libonemkl_lapack_mklcpu.so.0:_ZNSt12domain_errorD0Ev
libonemkl_lapack_mklcpu.so.0:_ZNSt12domain_errorD1Ev
libonemkl_lapack_mklcpu.so.0:_ZNSt12domain_errorD2Ev
libonemkl_lapack_mklcpu.so.0:_ZNSt12length_errorC1EPKc
libonemkl_lapack_mklcpu.so.0:_ZNSt12length_errorC1ERKNSt7__cxx1112basic_stringIcSt11char_traitsIcESaIcEEE
libonemkl_lapack_mklcpu.so.0:_ZNSt12length_errorC1ERKSs
libonemkl_lapack_mklcpu.so.0:_ZNSt12length_errorC2EPKc
libonemkl_lapack_mklcpu.so.0:_ZNSt12length_errorC2ERKNSt7__cxx1112basic_stringIcSt11char_traitsIcESaIcEEE
libonemkl_lapack_mklcpu.so.0:_ZNSt12length_errorC2ERKSs
libonemkl_lapack_mklcpu.so.0:_ZNSt12length_errorD0Ev
libonemkl_lapack_mklcpu.so.0:_ZNSt12length_errorD1Ev
libonemkl_lapack_mklcpu.so.0:_ZNSt12length_errorD2Ev
libonemkl_lapack_mklcpu.so.0:_ZNSt12out_of_rangeC1EPKc
libonemkl_lapack_mklcpu.so.0:_ZNSt12out_of_rangeC1ERKNSt7__cxx1112basic_stringIcSt11char_traitsIcESaIcEEE
libonemkl_lapack_mklcpu.so.0:_ZNSt12out_of_rangeC1ERKSs
libonemkl_lapack_mklcpu.so.0:_ZNSt12out_of_rangeC2EPKc
libonemkl_lapack_mklcpu.so.0:_ZNSt12out_of_rangeC2ERKNSt7__cxx1112basic_stringIcSt11char_traitsIcESaIcEEE
libonemkl_lapack_mklcpu.so.0:_ZNSt12out_of_rangeC2ERKSs
libonemkl_lapack_mklcpu.so.0:_ZNSt12out_of_rangeD0Ev
libonemkl_lapack_mklcpu.so.0:_ZNSt12out_of_rangeD1Ev
libonemkl_lapack_mklcpu.so.0:_ZNSt12out_of_rangeD2Ev
libonemkl_lapack_mklcpu.so.0:_ZNSt12system_errorD0Ev
libonemkl_lapack_mklcpu.so.0:_ZNSt12system_errorD1Ev
libonemkl_lapack_mklcpu.so.0:_ZNSt12system_errorD2Ev
libonemkl_lapack_mklcpu.so.0:_ZNSt13bad_exceptionD0Ev
libonemkl_lapack_mklcpu.so.0:_ZNSt13bad_exceptionD1Ev
libonemkl_lapack_mklcpu.so.0:_ZNSt13bad_exceptionD2Ev
libonemkl_lapack_mklcpu.so.0:_ZNSt13basic_istreamIwSt11char_traitsIwEE6ignoreEl
libonemkl_lapack_mklcpu.so.0:_ZNSt13basic_istreamIwSt11char_traitsIwEE6ignoreElj
libonemkl_lapack_mklcpu.so.0:_ZNSt13basic_istreamIwSt11char_traitsIwEE7getlineEPwlw
libonemkl_lapack_mklcpu.so.0:_ZNSt13random_device14_M_init_pretr1ERKNSt7__cxx1112basic_stringIcSt11char_traitsIcESaIcEEE
libonemkl_lapack_mklcpu.so.0:_ZNSt13random_device14_M_init_pretr1ERKSs
libonemkl_lapack_mklcpu.so.0:_ZNSt13random_device16_M_getval_pretr1Ev
libonemkl_lapack_mklcpu.so.0:_ZNSt13random_device7_M_finiEv
libonemkl_lapack_mklcpu.so.0:_ZNSt13random_device7_M_initEPKcm
libonemkl_lapack_mklcpu.so.0:_ZNSt13random_device7_M_initERKNSt7__cxx1112basic_stringIcSt11char_traitsIcESaIcEEE
libonemkl_lapack_mklcpu.so.0:_ZNSt13random_device7_M_initERKSs
libonemkl_lapack_mklcpu.so.0:_ZNSt13random_device9_M_getvalEv
libonemkl_lapack_mklcpu.so.0:_ZNSt13runtime_errorC1EOS_
libonemkl_lapack_mklcpu.so.0:_ZNSt13runtime_errorC1EPKc
libonemkl_lapack_mklcpu.so.0:_ZNSt13runtime_errorC1ERKNSt7__cxx1112basic_stringIcSt11char_traitsIcESaIcEEE
libonemkl_lapack_mklcpu.so.0:_ZNSt13runtime_errorC1ERKS_
libonemkl_lapack_mklcpu.so.0:_ZNSt13runtime_errorC1ERKSs
libonemkl_lapack_mklcpu.so.0:_ZNSt13runtime_errorC2EOS_
libonemkl_lapack_mklcpu.so.0:_ZNSt13runtime_errorC2EPKc
libonemkl_lapack_mklcpu.so.0:_ZNSt13runtime_errorC2ERKNSt7__cxx1112basic_stringIcSt11char_traitsIcESaIcEEE
libonemkl_lapack_mklcpu.so.0:_ZNSt13runtime_errorC2ERKS_
libonemkl_lapack_mklcpu.so.0:_ZNSt13runtime_errorC2ERKSs
libonemkl_lapack_mklcpu.so.0:_ZNSt13runtime_errorD0Ev
libonemkl_lapack_mklcpu.so.0:_ZNSt13runtime_errorD1Ev
libonemkl_lapack_mklcpu.so.0:_ZNSt13runtime_errorD2Ev
libonemkl_lapack_mklcpu.so.0:_ZNSt13runtime_erroraSEOS_
libonemkl_lapack_mklcpu.so.0:_ZNSt13runtime_erroraSERKS_
libonemkl_lapack_mklcpu.so.0:_ZNSt14overflow_errorC1EPKc
libonemkl_lapack_mklcpu.so.0:_ZNSt14overflow_errorC1ERKNSt7__cxx1112basic_stringIcSt11char_traitsIcESaIcEEE
libonemkl_lapack_mklcpu.so.0:_ZNSt14overflow_errorC1ERKSs
libonemkl_lapack_mklcpu.so.0:_ZNSt14overflow_errorC2EPKc
libonemkl_lapack_mklcpu.so.0:_ZNSt14overflow_errorC2ERKNSt7__cxx1112basic_stringIcSt11char_traitsIcESaIcEEE
libonemkl_lapack_mklcpu.so.0:_ZNSt14overflow_errorC2ERKSs
libonemkl_lapack_mklcpu.so.0:_ZNSt14overflow_errorD0Ev
libonemkl_lapack_mklcpu.so.0:_ZNSt14overflow_errorD1Ev
libonemkl_lapack_mklcpu.so.0:_ZNSt14overflow_errorD2Ev
libonemkl_lapack_mklcpu.so.0:_ZNSt15__exception_ptr13exception_ptr10_M_releaseEv
libonemkl_lapack_mklcpu.so.0:_ZNSt15__exception_ptr13exception_ptr18_M_safe_bool_dummyEv
libonemkl_lapack_mklcpu.so.0:_ZNSt15__exception_ptr13exception_ptr9_M_addrefEv
libonemkl_lapack_mklcpu.so.0:_ZNSt15__exception_ptr13exception_ptrC1EMS0_FvvE
libonemkl_lapack_mklcpu.so.0:_ZNSt15__exception_ptr13exception_ptrC1EPv
libonemkl_lapack_mklcpu.so.0:_ZNSt15__exception_ptr13exception_ptrC2EMS0_FvvE
libonemkl_lapack_mklcpu.so.0:_ZNSt15__exception_ptr13exception_ptrC2EPv
libonemkl_lapack_mklcpu.so.0:_ZNSt15underflow_errorC1EPKc
libonemkl_lapack_mklcpu.so.0:_ZNSt15underflow_errorC1ERKNSt7__cxx1112basic_stringIcSt11char_traitsIcESaIcEEE
libonemkl_lapack_mklcpu.so.0:_ZNSt15underflow_errorC1ERKSs
libonemkl_lapack_mklcpu.so.0:_ZNSt15underflow_errorC2EPKc
libonemkl_lapack_mklcpu.so.0:_ZNSt15underflow_errorC2ERKNSt7__cxx1112basic_stringIcSt11char_traitsIcESaIcEEE
libonemkl_lapack_mklcpu.so.0:_ZNSt15underflow_errorC2ERKSs
libonemkl_lapack_mklcpu.so.0:_ZNSt15underflow_errorD0Ev
libonemkl_lapack_mklcpu.so.0:_ZNSt15underflow_errorD1Ev
libonemkl_lapack_mklcpu.so.0:_ZNSt15underflow_errorD2Ev
libonemkl_lapack_mklcpu.so.0:_ZNSt16invalid_argumentC1EPKc
libonemkl_lapack_mklcpu.so.0:_ZNSt16invalid_argumentC1ERKNSt7__cxx1112basic_stringIcSt11char_traitsIcESaIcEEE
libonemkl_lapack_mklcpu.so.0:_ZNSt16invalid_argumentC1ERKSs
libonemkl_lapack_mklcpu.so.0:_ZNSt16invalid_argumentC2EPKc
libonemkl_lapack_mklcpu.so.0:_ZNSt16invalid_argumentC2ERKNSt7__cxx1112basic_stringIcSt11char_traitsIcESaIcEEE
libonemkl_lapack_mklcpu.so.0:_ZNSt16invalid_argumentC2ERKSs
libonemkl_lapack_mklcpu.so.0:_ZNSt16invalid_argumentD0Ev
libonemkl_lapack_mklcpu.so.0:_ZNSt16invalid_argumentD1Ev
libonemkl_lapack_mklcpu.so.0:_ZNSt16invalid_argumentD2Ev
libonemkl_lapack_mklcpu.so.0:_ZNSt17bad_function_callD0Ev
libonemkl_lapack_mklcpu.so.0:_ZNSt17bad_function_callD1Ev
libonemkl_lapack_mklcpu.so.0:_ZNSt17bad_function_callD2Ev
libonemkl_lapack_mklcpu.so.0:_ZNSt19__codecvt_utf8_baseIDiED0Ev
libonemkl_lapack_mklcpu.so.0:_ZNSt19__codecvt_utf8_baseIDiED1Ev
libonemkl_lapack_mklcpu.so.0:_ZNSt19__codecvt_utf8_baseIDiED2Ev
libonemkl_lapack_mklcpu.so.0:_ZNSt19__codecvt_utf8_baseIDsED0Ev
libonemkl_lapack_mklcpu.so.0:_ZNSt19__codecvt_utf8_baseIDsED1Ev
libonemkl_lapack_mklcpu.so.0:_ZNSt19__codecvt_utf8_baseIDsED2Ev
libonemkl_lapack_mklcpu.so.0:_ZNSt19__codecvt_utf8_baseIwED0Ev
libonemkl_lapack_mklcpu.so.0:_ZNSt19__codecvt_utf8_baseIwED1Ev
libonemkl_lapack_mklcpu.so.0:_ZNSt19__codecvt_utf8_baseIwED2Ev
libonemkl_lapack_mklcpu.so.0:_ZNSt19__iosfail_type_infoD0Ev
libonemkl_lapack_mklcpu.so.0:_ZNSt19__iosfail_type_infoD1Ev
libonemkl_lapack_mklcpu.so.0:_ZNSt19__iosfail_type_infoD2Ev
libonemkl_lapack_mklcpu.so.0:_ZNSt20__codecvt_utf16_baseIDiED0Ev
libonemkl_lapack_mklcpu.so.0:_ZNSt20__codecvt_utf16_baseIDiED1Ev
libonemkl_lapack_mklcpu.so.0:_ZNSt20__codecvt_utf16_baseIDiED2Ev
libonemkl_lapack_mklcpu.so.0:_ZNSt20__codecvt_utf16_baseIDsED0Ev
libonemkl_lapack_mklcpu.so.0:_ZNSt20__codecvt_utf16_baseIDsED1Ev
libonemkl_lapack_mklcpu.so.0:_ZNSt20__codecvt_utf16_baseIDsED2Ev
libonemkl_lapack_mklcpu.so.0:_ZNSt20__codecvt_utf16_baseIwED0Ev
libonemkl_lapack_mklcpu.so.0:_ZNSt20__codecvt_utf16_baseIwED1Ev
libonemkl_lapack_mklcpu.so.0:_ZNSt20__codecvt_utf16_baseIwED2Ev
libonemkl_lapack_mklcpu.so.0:_ZNSt20bad_array_new_lengthD0Ev
libonemkl_lapack_mklcpu.so.0:_ZNSt20bad_array_new_lengthD1Ev
libonemkl_lapack_mklcpu.so.0:_ZNSt20bad_array_new_lengthD2Ev
libonemkl_lapack_mklcpu.so.0:_ZNSt25__codecvt_utf8_utf16_baseIDiED0Ev
libonemkl_lapack_mklcpu.so.0:_ZNSt25__codecvt_utf8_utf16_baseIDiED1Ev
libonemkl_lapack_mklcpu.so.0:_ZNSt25__codecvt_utf8_utf16_baseIDiED2Ev
libonemkl_lapack_mklcpu.so.0:_ZNSt25__codecvt_utf8_utf16_baseIDsED0Ev
libonemkl_lapack_mklcpu.so.0:_ZNSt25__codecvt_utf8_utf16_baseIDsED1Ev
libonemkl_lapack_mklcpu.so.0:_ZNSt25__codecvt_utf8_utf16_baseIDsED2Ev
libonemkl_lapack_mklcpu.so.0:_ZNSt25__codecvt_utf8_utf16_baseIwED0Ev
libonemkl_lapack_mklcpu.so.0:_ZNSt25__codecvt_utf8_utf16_baseIwED1Ev
libonemkl_lapack_mklcpu.so.0:_ZNSt25__codecvt_utf8_utf16_baseIwED2Ev
libonemkl_lapack_mklcpu.so.0:_ZNSt3_V214error_categoryD0Ev
libonemkl_lapack_mklcpu.so.0:_ZNSt3_V214error_categoryD1Ev
libonemkl_lapack_mklcpu.so.0:_ZNSt3_V214error_categoryD2Ev
libonemkl_lapack_mklcpu.so.0:_ZNSt3_V215system_categoryEv
libonemkl_lapack_mklcpu.so.0:_ZNSt3_V216generic_categoryEv
libonemkl_lapack_mklcpu.so.0:_ZNSt5ctypeIcE13classic_tableEv
libonemkl_lapack_mklcpu.so.0:_ZNSt5ctypeIcEC1EP15__locale_structPKtbm
libonemkl_lapack_mklcpu.so.0:_ZNSt5ctypeIcEC1EPKtbm
libonemkl_lapack_mklcpu.so.0:_ZNSt5ctypeIcEC2EP15__locale_structPKtbm
libonemkl_lapack_mklcpu.so.0:_ZNSt5ctypeIcEC2EPKtbm
libonemkl_lapack_mklcpu.so.0:_ZNSt5ctypeIcED0Ev
libonemkl_lapack_mklcpu.so.0:_ZNSt5ctypeIcED1Ev
libonemkl_lapack_mklcpu.so.0:_ZNSt5ctypeIcED2Ev
libonemkl_lapack_mklcpu.so.0:_ZNSt5ctypeIwE19_M_initialize_ctypeEv
libonemkl_lapack_mklcpu.so.0:_ZNSt5ctypeIwEC1EP15__locale_structm
libonemkl_lapack_mklcpu.so.0:_ZNSt5ctypeIwEC1Em
libonemkl_lapack_mklcpu.so.0:_ZNSt5ctypeIwEC2EP15__locale_structm
libonemkl_lapack_mklcpu.so.0:_ZNSt5ctypeIwEC2Em
libonemkl_lapack_mklcpu.so.0:_ZNSt5ctypeIwED0Ev
libonemkl_lapack_mklcpu.so.0:_ZNSt5ctypeIwED1Ev
libonemkl_lapack_mklcpu.so.0:_ZNSt5ctypeIwED2Ev
libonemkl_lapack_mklcpu.so.0:_ZNSt6locale13_S_initializeEv
libonemkl_lapack_mklcpu.so.0:_ZNSt6locale18_S_initialize_onceEv
libonemkl_lapack_mklcpu.so.0:_ZNSt6locale21_S_normalize_categoryEi
libonemkl_lapack_mklcpu.so.0:_ZNSt6locale5_Impl13_M_init_extraEPPNS_5facetE
libonemkl_lapack_mklcpu.so.0:_ZNSt6locale5_Impl13_M_init_extraEPvS1_PKcS3_
libonemkl_lapack_mklcpu.so.0:_ZNSt6locale5_Impl16_M_install_cacheEPKNS_5facetEm
libonemkl_lapack_mklcpu.so.0:_ZNSt6locale5_Impl16_M_install_facetEPKNS_2idEPKNS_5facetE
libonemkl_lapack_mklcpu.so.0:_ZNSt6locale5_Impl16_M_replace_facetEPKS0_PKNS_2idE
libonemkl_lapack_mklcpu.so.0:_ZNSt6locale5_Impl19_M_replace_categoryEPKS0_PKPKNS_2idE
libonemkl_lapack_mklcpu.so.0:_ZNSt6locale5_ImplC1ERKS0_m
libonemkl_lapack_mklcpu.so.0:_ZNSt6locale5_ImplC1Em
libonemkl_lapack_mklcpu.so.0:_ZNSt6locale5_ImplC2ERKS0_m
libonemkl_lapack_mklcpu.so.0:_ZNSt6locale5_ImplC2Em
libonemkl_lapack_mklcpu.so.0:_ZNSt6locale5_ImplD1Ev
libonemkl_lapack_mklcpu.so.0:_ZNSt6locale5_ImplD2Ev
libonemkl_lapack_mklcpu.so.0:_ZNSt6locale5facet13_S_get_c_nameEv
libonemkl_lapack_mklcpu.so.0:_ZNSt6locale5facet15_S_get_c_localeEv
libonemkl_lapack_mklcpu.so.0:_ZNSt6locale5facet17_S_clone_c_localeERP15__locale_struct
libonemkl_lapack_mklcpu.so.0:_ZNSt6locale5facet18_S_create_c_localeERP15__locale_structPKcS2_
libonemkl_lapack_mklcpu.so.0:_ZNSt6locale5facet18_S_initialize_onceEv
libonemkl_lapack_mklcpu.so.0:_ZNSt6locale5facet19_S_destroy_c_localeERP15__locale_struct
libonemkl_lapack_mklcpu.so.0:_ZNSt6locale5facet20_S_lc_ctype_c_localeEP15__locale_structPKc
libonemkl_lapack_mklcpu.so.0:_ZNSt6locale5facetD0Ev
libonemkl_lapack_mklcpu.so.0:_ZNSt6locale5facetD1Ev
libonemkl_lapack_mklcpu.so.0:_ZNSt6locale5facetD2Ev
libonemkl_lapack_mklcpu.so.0:_ZNSt6locale6globalERKS_
libonemkl_lapack_mklcpu.so.0:_ZNSt6locale7classicEv
libonemkl_lapack_mklcpu.so.0:_ZNSt6localeC1EPNS_5_ImplE
libonemkl_lapack_mklcpu.so.0:_ZNSt6localeC1ERKS_
libonemkl_lapack_mklcpu.so.0:_ZNSt6localeC1Ev
libonemkl_lapack_mklcpu.so.0:_ZNSt6localeC2EPNS_5_ImplE
libonemkl_lapack_mklcpu.so.0:_ZNSt6localeC2ERKS_
libonemkl_lapack_mklcpu.so.0:_ZNSt6localeC2Ev
libonemkl_lapack_mklcpu.so.0:_ZNSt6localeD1Ev
libonemkl_lapack_mklcpu.so.0:_ZNSt6localeD2Ev
libonemkl_lapack_mklcpu.so.0:_ZNSt6localeaSERKS_
libonemkl_lapack_mklcpu.so.0:_ZNSt6thread15_M_start_threadESt10shared_ptrINS_10_Impl_baseEE
libonemkl_lapack_mklcpu.so.0:_ZNSt6thread15_M_start_threadESt10shared_ptrINS_10_Impl_baseEEPFvvE
libonemkl_lapack_mklcpu.so.0:_ZNSt6thread15_M_start_threadESt10unique_ptrINS_6_StateESt14default_deleteIS1_EEPFvvE
libonemkl_lapack_mklcpu.so.0:_ZNSt6thread20hardware_concurrencyEv
libonemkl_lapack_mklcpu.so.0:_ZNSt6thread4joinEv
libonemkl_lapack_mklcpu.so.0:_ZNSt6thread6_StateD0Ev
libonemkl_lapack_mklcpu.so.0:_ZNSt6thread6_StateD1Ev
libonemkl_lapack_mklcpu.so.0:_ZNSt6thread6_StateD2Ev
libonemkl_lapack_mklcpu.so.0:_ZNSt6thread6detachEv
libonemkl_lapack_mklcpu.so.0:_ZNSt7__cxx1110moneypunctIcLb0EE24_M_initialize_moneypunctEP15__locale_structPKc
libonemkl_lapack_mklcpu.so.0:_ZNSt7__cxx1110moneypunctIcLb0EED0Ev
libonemkl_lapack_mklcpu.so.0:_ZNSt7__cxx1110moneypunctIcLb0EED1Ev
libonemkl_lapack_mklcpu.so.0:_ZNSt7__cxx1110moneypunctIcLb0EED2Ev
libonemkl_lapack_mklcpu.so.0:_ZNSt7__cxx1110moneypunctIcLb1EE24_M_initialize_moneypunctEP15__locale_structPKc
libonemkl_lapack_mklcpu.so.0:_ZNSt7__cxx1110moneypunctIcLb1EED0Ev
libonemkl_lapack_mklcpu.so.0:_ZNSt7__cxx1110moneypunctIcLb1EED1Ev
libonemkl_lapack_mklcpu.so.0:_ZNSt7__cxx1110moneypunctIcLb1EED2Ev
libonemkl_lapack_mklcpu.so.0:_ZNSt7__cxx1110moneypunctIwLb0EE24_M_initialize_moneypunctEP15__locale_structPKc
libonemkl_lapack_mklcpu.so.0:_ZNSt7__cxx1110moneypunctIwLb0EED0Ev
libonemkl_lapack_mklcpu.so.0:_ZNSt7__cxx1110moneypunctIwLb0EED1Ev
libonemkl_lapack_mklcpu.so.0:_ZNSt7__cxx1110moneypunctIwLb0EED2Ev
libonemkl_lapack_mklcpu.so.0:_ZNSt7__cxx1110moneypunctIwLb1EE24_M_initialize_moneypunctEP15__locale_structPKc
libonemkl_lapack_mklcpu.so.0:_ZNSt7__cxx1110moneypunctIwLb1EED0Ev
libonemkl_lapack_mklcpu.so.0:_ZNSt7__cxx1110moneypunctIwLb1EED1Ev
libonemkl_lapack_mklcpu.so.0:_ZNSt7__cxx1110moneypunctIwLb1EED2Ev
libonemkl_lapack_mklcpu.so.0:_ZNSt7__cxx118numpunctIcE22_M_initialize_numpunctEP15__locale_struct
libonemkl_lapack_mklcpu.so.0:_ZNSt7__cxx118numpunctIcED0Ev
libonemkl_lapack_mklcpu.so.0:_ZNSt7__cxx118numpunctIcED1Ev
libonemkl_lapack_mklcpu.so.0:_ZNSt7__cxx118numpunctIcED2Ev
libonemkl_lapack_mklcpu.so.0:_ZNSt7__cxx118numpunctIwE22_M_initialize_numpunctEP15__locale_struct
libonemkl_lapack_mklcpu.so.0:_ZNSt7__cxx118numpunctIwED0Ev
libonemkl_lapack_mklcpu.so.0:_ZNSt7__cxx118numpunctIwED1Ev
libonemkl_lapack_mklcpu.so.0:_ZNSt7__cxx118numpunctIwED2Ev
libonemkl_lapack_mklcpu.so.0:_ZNSt7codecvtIDiDu11__mbstate_tED0Ev
libonemkl_lapack_mklcpu.so.0:_ZNSt7codecvtIDiDu11__mbstate_tED1Ev
libonemkl_lapack_mklcpu.so.0:_ZNSt7codecvtIDiDu11__mbstate_tED2Ev
libonemkl_lapack_mklcpu.so.0:_ZNSt7codecvtIDic11__mbstate_tED0Ev
libonemkl_lapack_mklcpu.so.0:_ZNSt7codecvtIDic11__mbstate_tED1Ev
libonemkl_lapack_mklcpu.so.0:_ZNSt7codecvtIDic11__mbstate_tED2Ev
libonemkl_lapack_mklcpu.so.0:_ZNSt7codecvtIDsDu11__mbstate_tED0Ev
libonemkl_lapack_mklcpu.so.0:_ZNSt7codecvtIDsDu11__mbstate_tED1Ev
libonemkl_lapack_mklcpu.so.0:_ZNSt7codecvtIDsDu11__mbstate_tED2Ev
libonemkl_lapack_mklcpu.so.0:_ZNSt7codecvtIDsc11__mbstate_tED0Ev
libonemkl_lapack_mklcpu.so.0:_ZNSt7codecvtIDsc11__mbstate_tED1Ev
libonemkl_lapack_mklcpu.so.0:_ZNSt7codecvtIDsc11__mbstate_tED2Ev
libonemkl_lapack_mklcpu.so.0:_ZNSt7codecvtIcc11__mbstate_tEC1EP15__locale_structm
libonemkl_lapack_mklcpu.so.0:_ZNSt7codecvtIcc11__mbstate_tEC1Em
libonemkl_lapack_mklcpu.so.0:_ZNSt7codecvtIcc11__mbstate_tEC2EP15__locale_structm
libonemkl_lapack_mklcpu.so.0:_ZNSt7codecvtIcc11__mbstate_tEC2Em
libonemkl_lapack_mklcpu.so.0:_ZNSt7codecvtIcc11__mbstate_tED0Ev
libonemkl_lapack_mklcpu.so.0:_ZNSt7codecvtIcc11__mbstate_tED1Ev
libonemkl_lapack_mklcpu.so.0:_ZNSt7codecvtIcc11__mbstate_tED2Ev
libonemkl_lapack_mklcpu.so.0:_ZNSt7codecvtIwc11__mbstate_tEC1EP15__locale_structm
libonemkl_lapack_mklcpu.so.0:_ZNSt7codecvtIwc11__mbstate_tEC1Em
libonemkl_lapack_mklcpu.so.0:_ZNSt7codecvtIwc11__mbstate_tEC2EP15__locale_structm
libonemkl_lapack_mklcpu.so.0:_ZNSt7codecvtIwc11__mbstate_tEC2Em
libonemkl_lapack_mklcpu.so.0:_ZNSt7codecvtIwc11__mbstate_tED0Ev
libonemkl_lapack_mklcpu.so.0:_ZNSt7codecvtIwc11__mbstate_tED1Ev
libonemkl_lapack_mklcpu.so.0:_ZNSt7codecvtIwc11__mbstate_tED2Ev
libonemkl_lapack_mklcpu.so.0:_ZNSt8Catalogs6_M_addEPKcSt6locale
libonemkl_lapack_mklcpu.so.0:_ZNSt8Catalogs8_M_eraseEi
libonemkl_lapack_mklcpu.so.0:_ZNSt8CatalogsD1Ev
libonemkl_lapack_mklcpu.so.0:_ZNSt8CatalogsD2Ev
libonemkl_lapack_mklcpu.so.0:_ZNSt8bad_castD0Ev
libonemkl_lapack_mklcpu.so.0:_ZNSt8bad_castD1Ev
libonemkl_lapack_mklcpu.so.0:_ZNSt8bad_castD2Ev
libonemkl_lapack_mklcpu.so.0:_ZNSt8ios_base13_M_grow_wordsEib
libonemkl_lapack_mklcpu.so.0:_ZNSt8ios_base15sync_with_stdioEb
libonemkl_lapack_mklcpu.so.0:_ZNSt8ios_base17_M_call_callbacksENS_5eventE
libonemkl_lapack_mklcpu.so.0:_ZNSt8ios_base17register_callbackEPFvNS_5eventERS_iEi
libonemkl_lapack_mklcpu.so.0:_ZNSt8ios_base20_M_dispose_callbacksEv
libonemkl_lapack_mklcpu.so.0:_ZNSt8ios_base4InitC1Ev
libonemkl_lapack_mklcpu.so.0:_ZNSt8ios_base4InitC2Ev
libonemkl_lapack_mklcpu.so.0:_ZNSt8ios_base4InitD1Ev
libonemkl_lapack_mklcpu.so.0:_ZNSt8ios_base4InitD2Ev
libonemkl_lapack_mklcpu.so.0:_ZNSt8ios_base5imbueERKSt6locale
libonemkl_lapack_mklcpu.so.0:_ZNSt8ios_base6xallocEv
libonemkl_lapack_mklcpu.so.0:_ZNSt8ios_base7_M_initEv
libonemkl_lapack_mklcpu.so.0:_ZNSt8ios_base7_M_moveERS_
libonemkl_lapack_mklcpu.so.0:_ZNSt8ios_base7_M_swapERS_
libonemkl_lapack_mklcpu.so.0:_ZNSt8ios_base7failureB5cxx11C1EPKcRKSt10error_code
libonemkl_lapack_mklcpu.so.0:_ZNSt8ios_base7failureB5cxx11C1ERKNSt7__cxx1112basic_stringIcSt11char_traitsIcESaIcEEE
libonemkl_lapack_mklcpu.so.0:_ZNSt8ios_base7failureB5cxx11C1ERKNSt7__cxx1112basic_stringIcSt11char_traitsIcESaIcEEERKSt10error_code
libonemkl_lapack_mklcpu.so.0:_ZNSt8ios_base7failureB5cxx11C2EPKcRKSt10error_code
libonemkl_lapack_mklcpu.so.0:_ZNSt8ios_base7failureB5cxx11C2ERKNSt7__cxx1112basic_stringIcSt11char_traitsIcESaIcEEE
libonemkl_lapack_mklcpu.so.0:_ZNSt8ios_base7failureB5cxx11C2ERKNSt7__cxx1112basic_stringIcSt11char_traitsIcESaIcEEERKSt10error_code
libonemkl_lapack_mklcpu.so.0:_ZNSt8ios_base7failureB5cxx11D0Ev
libonemkl_lapack_mklcpu.so.0:_ZNSt8ios_base7failureB5cxx11D1Ev
libonemkl_lapack_mklcpu.so.0:_ZNSt8ios_base7failureB5cxx11D2Ev
libonemkl_lapack_mklcpu.so.0:_ZNSt8ios_base7failureC1ERKSs
libonemkl_lapack_mklcpu.so.0:_ZNSt8ios_base7failureC2ERKSs
libonemkl_lapack_mklcpu.so.0:_ZNSt8ios_base7failureD0Ev
libonemkl_lapack_mklcpu.so.0:_ZNSt8ios_base7failureD1Ev
libonemkl_lapack_mklcpu.so.0:_ZNSt8ios_base7failureD2Ev
libonemkl_lapack_mklcpu.so.0:_ZNSt8ios_baseC1Ev
libonemkl_lapack_mklcpu.so.0:_ZNSt8ios_baseC2Ev
libonemkl_lapack_mklcpu.so.0:_ZNSt8ios_baseD0Ev
libonemkl_lapack_mklcpu.so.0:_ZNSt8ios_baseD1Ev
libonemkl_lapack_mklcpu.so.0:_ZNSt8ios_baseD2Ev
libonemkl_lapack_mklcpu.so.0:_ZNSt8numpunctIcE22_M_initialize_numpunctEP15__locale_struct
libonemkl_lapack_mklcpu.so.0:_ZNSt8numpunctIcED0Ev
libonemkl_lapack_mklcpu.so.0:_ZNSt8numpunctIcED1Ev
libonemkl_lapack_mklcpu.so.0:_ZNSt8numpunctIcED2Ev
libonemkl_lapack_mklcpu.so.0:_ZNSt8numpunctIwE22_M_initialize_numpunctEP15__locale_struct
libonemkl_lapack_mklcpu.so.0:_ZNSt8numpunctIwED0Ev
libonemkl_lapack_mklcpu.so.0:_ZNSt8numpunctIwED1Ev
libonemkl_lapack_mklcpu.so.0:_ZNSt8numpunctIwED2Ev
libonemkl_lapack_mklcpu.so.0:_ZNSt9bad_allocD0Ev
libonemkl_lapack_mklcpu.so.0:_ZNSt9bad_allocD1Ev
libonemkl_lapack_mklcpu.so.0:_ZNSt9bad_allocD2Ev
libonemkl_lapack_mklcpu.so.0:_ZNSt9exceptionD0Ev
libonemkl_lapack_mklcpu.so.0:_ZNSt9exceptionD1Ev
libonemkl_lapack_mklcpu.so.0:_ZNSt9exceptionD2Ev
libonemkl_lapack_mklcpu.so.0:_ZNSt9type_infoD0Ev
libonemkl_lapack_mklcpu.so.0:_ZNSt9type_infoD1Ev
libonemkl_lapack_mklcpu.so.0:_ZNSt9type_infoD2Ev
libonemkl_lapack_mklcpu.so.0:_ZSt10unexpectedv
libonemkl_lapack_mklcpu.so.0:_ZSt12get_catalogsv
libonemkl_lapack_mklcpu.so.0:_ZSt13get_terminatev
libonemkl_lapack_mklcpu.so.0:_ZSt13set_terminatePFvvE
libonemkl_lapack_mklcpu.so.0:_ZSt14__convert_to_vIdEvPKcRT_RSt12_Ios_IostateRKP15__locale_struct
libonemkl_lapack_mklcpu.so.0:_ZSt14__convert_to_vIeEvPKcRT_RSt12_Ios_IostateRKP15__locale_struct
libonemkl_lapack_mklcpu.so.0:_ZSt14__convert_to_vIfEvPKcRT_RSt12_Ios_IostateRKP15__locale_struct
libonemkl_lapack_mklcpu.so.0:_ZSt14get_unexpectedv
libonemkl_lapack_mklcpu.so.0:_ZSt14set_unexpectedPFvvE
libonemkl_lapack_mklcpu.so.0:_ZSt15get_new_handlerv
libonemkl_lapack_mklcpu.so.0:_ZSt15set_new_handlerPFvvE
libonemkl_lapack_mklcpu.so.0:_ZSt16__throw_bad_castv
libonemkl_lapack_mklcpu.so.0:_ZSt17__istream_extractRSiPcl
libonemkl_lapack_mklcpu.so.0:_ZSt17__throw_bad_allocv
libonemkl_lapack_mklcpu.so.0:_ZSt17__verify_groupingPKcmRKNSt7__cxx1112basic_stringIcSt11char_traitsIcESaIcEEE
libonemkl_lapack_mklcpu.so.0:_ZSt17__verify_groupingPKcmRKSs
libonemkl_lapack_mklcpu.so.0:_ZSt17current_exceptionv
libonemkl_lapack_mklcpu.so.0:_ZSt17iostream_categoryv
libonemkl_lapack_mklcpu.so.0:_ZSt17rethrow_exceptionNSt15__exception_ptr13exception_ptrE
libonemkl_lapack_mklcpu.so.0:_ZSt18__throw_bad_typeidv
libonemkl_lapack_mklcpu.so.0:_ZSt18uncaught_exceptionv
libonemkl_lapack_mklcpu.so.0:_ZSt19__throw_ios_failurePKc
libonemkl_lapack_mklcpu.so.0:_ZSt19__throw_ios_failurePKci
libonemkl_lapack_mklcpu.so.0:_ZSt19__throw_logic_errorPKc
libonemkl_lapack_mklcpu.so.0:_ZSt19__throw_range_errorPKc
libonemkl_lapack_mklcpu.so.0:_ZSt19uncaught_exceptionsv
libonemkl_lapack_mklcpu.so.0:_ZSt20__throw_domain_errorPKc
libonemkl_lapack_mklcpu.so.0:_ZSt20__throw_length_errorPKc
libonemkl_lapack_mklcpu.so.0:_ZSt20__throw_out_of_rangePKc
libonemkl_lapack_mklcpu.so.0:_ZSt20__throw_system_errori
libonemkl_lapack_mklcpu.so.0:_ZSt21__copy_streambufs_eofIcSt11char_traitsIcEElPSt15basic_streambufIT_T0_ES6_Rb
libonemkl_lapack_mklcpu.so.0:_ZSt21__copy_streambufs_eofIwSt11char_traitsIwEElPSt15basic_streambufIT_T0_ES6_Rb
libonemkl_lapack_mklcpu.so.0:_ZSt21__destroy_ios_failurePv
libonemkl_lapack_mklcpu.so.0:_ZSt21__throw_bad_exceptionv
libonemkl_lapack_mklcpu.so.0:_ZSt21__throw_runtime_errorPKc
libonemkl_lapack_mklcpu.so.0:_ZSt22__throw_overflow_errorPKc
libonemkl_lapack_mklcpu.so.0:_ZSt22__verify_grouping_implPKcmS0_m
libonemkl_lapack_mklcpu.so.0:_ZSt23__construct_ios_failurePvPKc
libonemkl_lapack_mklcpu.so.0:_ZSt23__throw_underflow_errorPKc
libonemkl_lapack_mklcpu.so.0:_ZSt24__is_ios_failure_handlerPKN10__cxxabiv117__class_type_infoE
libonemkl_lapack_mklcpu.so.0:_ZSt24__narrow_multibyte_charsPKcP15__locale_struct
libonemkl_lapack_mklcpu.so.0:_ZSt24__throw_invalid_argumentPKc
libonemkl_lapack_mklcpu.so.0:_ZSt24__throw_out_of_range_fmtPKcz
libonemkl_lapack_mklcpu.so.0:_ZSt25__throw_bad_function_callv
libonemkl_lapack_mklcpu.so.0:_ZSt28__throw_bad_array_new_lengthv
libonemkl_lapack_mklcpu.so.0:_ZSt9terminatev
libonemkl_lapack_mklcpu.so.0:_ZdaPv
libonemkl_lapack_mklcpu.so.0:_ZdlPv
libonemkl_lapack_mklcpu.so.0:_ZdlPvm
libonemkl_lapack_mklcpu.so.0:_Znam
libonemkl_lapack_mklcpu.so.0:_ZnamRKSt9nothrow_t
libonemkl_lapack_mklcpu.so.0:_Znwm
libonemkl_lapack_mklcpu.so.0:__addq
libonemkl_lapack_mklcpu.so.0:__cacheSize
libonemkl_lapack_mklcpu.so.0:__compareq
libonemkl_lapack_mklcpu.so.0:__cxa_allocate_dependent_exception
libonemkl_lapack_mklcpu.so.0:__cxa_allocate_exception
libonemkl_lapack_mklcpu.so.0:__cxa_bad_cast
libonemkl_lapack_mklcpu.so.0:__cxa_bad_typeid
libonemkl_lapack_mklcpu.so.0:__cxa_begin_catch
libonemkl_lapack_mklcpu.so.0:__cxa_call_terminate
libonemkl_lapack_mklcpu.so.0:__cxa_call_unexpected
libonemkl_lapack_mklcpu.so.0:__cxa_current_exception_type
libonemkl_lapack_mklcpu.so.0:__cxa_deleted_virtual
libonemkl_lapack_mklcpu.so.0:__cxa_demangle
libonemkl_lapack_mklcpu.so.0:__cxa_end_catch
libonemkl_lapack_mklcpu.so.0:__cxa_free_dependent_exception
libonemkl_lapack_mklcpu.so.0:__cxa_free_exception
libonemkl_lapack_mklcpu.so.0:__cxa_get_exception_ptr
libonemkl_lapack_mklcpu.so.0:__cxa_get_globals
libonemkl_lapack_mklcpu.so.0:__cxa_get_globals_fast
libonemkl_lapack_mklcpu.so.0:__cxa_guard_abort
libonemkl_lapack_mklcpu.so.0:__cxa_guard_acquire
libonemkl_lapack_mklcpu.so.0:__cxa_guard_release
libonemkl_lapack_mklcpu.so.0:__cxa_init_primary_exception
libonemkl_lapack_mklcpu.so.0:__cxa_pure_virtual
libonemkl_lapack_mklcpu.so.0:__cxa_rethrow
libonemkl_lapack_mklcpu.so.0:__cxa_throw
libonemkl_lapack_mklcpu.so.0:__cxa_throw_bad_array_new_length
libonemkl_lapack_mklcpu.so.0:__divq
libonemkl_lapack_mklcpu.so.0:__divq.A
libonemkl_lapack_mklcpu.so.0:__divq.L
libonemkl_lapack_mklcpu.so.0:__dtoq
libonemkl_lapack_mklcpu.so.0:__dynamic_cast
libonemkl_lapack_mklcpu.so.0:__eqq
libonemkl_lapack_mklcpu.so.0:__ftoq
libonemkl_lapack_mklcpu.so.0:__gcclibcxx_demangle_callback
libonemkl_lapack_mklcpu.so.0:__geq
libonemkl_lapack_mklcpu.so.0:__gtq
libonemkl_lapack_mklcpu.so.0:__gxx_personality_v0
libonemkl_lapack_mklcpu.so.0:__intel_avx_rep_memcpy
libonemkl_lapack_mklcpu.so.0:__intel_avx_rep_memset
libonemkl_lapack_mklcpu.so.0:__intel_cpu_features_init_x
libonemkl_lapack_mklcpu.so.0:__intel_memcpy
libonemkl_lapack_mklcpu.so.0:__intel_memset
libonemkl_lapack_mklcpu.so.0:__intel_mic_avx512f_memcpy
libonemkl_lapack_mklcpu.so.0:__intel_mic_avx512f_memset
libonemkl_lapack_mklcpu.so.0:__intel_new_memcpy
libonemkl_lapack_mklcpu.so.0:__intel_new_memset
libonemkl_lapack_mklcpu.so.0:__intel_ssse3_memcpy
libonemkl_lapack_mklcpu.so.0:__intel_ssse3_rep_memcpy
libonemkl_lapack_mklcpu.so.0:__leq
libonemkl_lapack_mklcpu.so.0:__ltoq
libonemkl_lapack_mklcpu.so.0:__ltq
libonemkl_lapack_mklcpu.so.0:__mulq
libonemkl_lapack_mklcpu.so.0:__mulq.A
libonemkl_lapack_mklcpu.so.0:__mulq.L
libonemkl_lapack_mklcpu.so.0:__negq
libonemkl_lapack_mklcpu.so.0:__neq
libonemkl_lapack_mklcpu.so.0:__qtod
libonemkl_lapack_mklcpu.so.0:__qtof
libonemkl_lapack_mklcpu.so.0:__qtol
libonemkl_lapack_mklcpu.so.0:__subq
libonemkl_lapack_mklcpu.so.0:__svml_cbrt2_ha
libonemkl_lapack_mklcpu.so.0:__svml_cbrt2_ha_e7
libonemkl_lapack_mklcpu.so.0:__svml_cbrt2_ha_e9
libonemkl_lapack_mklcpu.so.0:__svml_cbrt2_ha_ex
libonemkl_lapack_mklcpu.so.0:__svml_cbrt2_ha_l9
libonemkl_lapack_mklcpu.so.0:__svml_cbrtf4_ha
libonemkl_lapack_mklcpu.so.0:__svml_cbrtf4_ha_e7
libonemkl_lapack_mklcpu.so.0:__svml_cbrtf4_ha_e9
libonemkl_lapack_mklcpu.so.0:__svml_cbrtf4_ha_ex
libonemkl_lapack_mklcpu.so.0:__svml_cbrtf4_ha_l9
libonemkl_lapack_mklcpu.so.0:__svml_erfc2_ha
libonemkl_lapack_mklcpu.so.0:__svml_erfc2_ha_e7
libonemkl_lapack_mklcpu.so.0:__svml_erfc2_ha_e9
libonemkl_lapack_mklcpu.so.0:__svml_erfc2_ha_ex
libonemkl_lapack_mklcpu.so.0:__svml_erfc2_ha_l9
libonemkl_lapack_mklcpu.so.0:__svml_feature_flag_init
libonemkl_lapack_mklcpu.so.0:__svml_hypot2_ha
libonemkl_lapack_mklcpu.so.0:__svml_hypot2_ha_e7
libonemkl_lapack_mklcpu.so.0:__svml_hypot2_ha_e9
libonemkl_lapack_mklcpu.so.0:__svml_hypot2_ha_ex
libonemkl_lapack_mklcpu.so.0:__svml_hypot2_ha_l9
libonemkl_lapack_mklcpu.so.0:__svml_hypotf4_ha
libonemkl_lapack_mklcpu.so.0:__svml_hypotf4_ha_e7
libonemkl_lapack_mklcpu.so.0:__svml_hypotf4_ha_e9
libonemkl_lapack_mklcpu.so.0:__svml_hypotf4_ha_ex
libonemkl_lapack_mklcpu.so.0:__svml_hypotf4_ha_l9
libonemkl_lapack_mklcpu.so.0:_intel_fast_memcpy
libonemkl_lapack_mklcpu.so.0:_intel_fast_memset
libonemkl_lapack_mklcpu.so.0:drand48
libonemkl_lapack_mklcpu.so.0:erand48
libonemkl_lapack_mklcpu.so.0:jrand48
libonemkl_lapack_mklcpu.so.0:lrand48
libonemkl_lapack_mklcpu.so.0:mrand48
libonemkl_lapack_mklcpu.so.0:nrand48
libonemkl_lapack_mklcpu.so.0:seed48
libonemkl_lapack_mklcpu.so.0:srand48
libonemkl_rng_mklcpu.so.0:_Z20_txnal_cow_string_D1Pv
libonemkl_rng_mklcpu.so.0:_Z23_txnal_cow_string_c_strPKv
libonemkl_rng_mklcpu.so.0:_Z23_txnal_sso_string_c_strPKv
libonemkl_rng_mklcpu.so.0:_Z26_txnal_logic_error_get_msgPv
libonemkl_rng_mklcpu.so.0:_Z27_txnal_cow_string_D1_commitPv
libonemkl_rng_mklcpu.so.0:_Z28_txnal_runtime_error_get_msgPv
libonemkl_rng_mklcpu.so.0:_Z35_txnal_cow_string_C1_for_exceptionsPvPKcS_
libonemkl_rng_mklcpu.so.0:_ZGTtNKSt11logic_error4whatEv
libonemkl_rng_mklcpu.so.0:_ZGTtNKSt13bad_exception4whatEv
libonemkl_rng_mklcpu.so.0:_ZGTtNKSt13bad_exceptionD1Ev
libonemkl_rng_mklcpu.so.0:_ZGTtNKSt13runtime_error4whatEv
libonemkl_rng_mklcpu.so.0:_ZGTtNKSt9exception4whatEv
libonemkl_rng_mklcpu.so.0:_ZGTtNKSt9exceptionD1Ev
libonemkl_rng_mklcpu.so.0:_ZGTtNSt11logic_errorC1EPKc
libonemkl_rng_mklcpu.so.0:_ZGTtNSt11logic_errorC1ERKNSt7__cxx1112basic_stringIcSt11char_traitsIcESaIcEEE
libonemkl_rng_mklcpu.so.0:_ZGTtNSt11logic_errorC2EPKc
libonemkl_rng_mklcpu.so.0:_ZGTtNSt11logic_errorC2ERKNSt7__cxx1112basic_stringIcSt11char_traitsIcESaIcEEE
libonemkl_rng_mklcpu.so.0:_ZGTtNSt11logic_errorD0Ev
libonemkl_rng_mklcpu.so.0:_ZGTtNSt11logic_errorD1Ev
libonemkl_rng_mklcpu.so.0:_ZGTtNSt11logic_errorD2Ev
libonemkl_rng_mklcpu.so.0:_ZGTtNSt11range_errorC1EPKc
libonemkl_rng_mklcpu.so.0:_ZGTtNSt11range_errorC1ERKNSt7__cxx1112basic_stringIcSt11char_traitsIcESaIcEEE
libonemkl_rng_mklcpu.so.0:_ZGTtNSt11range_errorC2EPKc
libonemkl_rng_mklcpu.so.0:_ZGTtNSt11range_errorC2ERKNSt7__cxx1112basic_stringIcSt11char_traitsIcESaIcEEE
libonemkl_rng_mklcpu.so.0:_ZGTtNSt11range_errorD0Ev
libonemkl_rng_mklcpu.so.0:_ZGTtNSt11range_errorD1Ev
libonemkl_rng_mklcpu.so.0:_ZGTtNSt11range_errorD2Ev
libonemkl_rng_mklcpu.so.0:_ZGTtNSt12domain_errorC1EPKc
libonemkl_rng_mklcpu.so.0:_ZGTtNSt12domain_errorC1ERKNSt7__cxx1112basic_stringIcSt11char_traitsIcESaIcEEE
libonemkl_rng_mklcpu.so.0:_ZGTtNSt12domain_errorC2EPKc
libonemkl_rng_mklcpu.so.0:_ZGTtNSt12domain_errorC2ERKNSt7__cxx1112basic_stringIcSt11char_traitsIcESaIcEEE
libonemkl_rng_mklcpu.so.0:_ZGTtNSt12domain_errorD0Ev
libonemkl_rng_mklcpu.so.0:_ZGTtNSt12domain_errorD1Ev
libonemkl_rng_mklcpu.so.0:_ZGTtNSt12domain_errorD2Ev
libonemkl_rng_mklcpu.so.0:_ZGTtNSt12length_errorC1EPKc
libonemkl_rng_mklcpu.so.0:_ZGTtNSt12length_errorC1ERKNSt7__cxx1112basic_stringIcSt11char_traitsIcESaIcEEE
libonemkl_rng_mklcpu.so.0:_ZGTtNSt12length_errorC2EPKc
libonemkl_rng_mklcpu.so.0:_ZGTtNSt12length_errorC2ERKNSt7__cxx1112basic_stringIcSt11char_traitsIcESaIcEEE
libonemkl_rng_mklcpu.so.0:_ZGTtNSt12length_errorD0Ev
libonemkl_rng_mklcpu.so.0:_ZGTtNSt12length_errorD1Ev
libonemkl_rng_mklcpu.so.0:_ZGTtNSt12length_errorD2Ev
libonemkl_rng_mklcpu.so.0:_ZGTtNSt12out_of_rangeC1EPKc
libonemkl_rng_mklcpu.so.0:_ZGTtNSt12out_of_rangeC1ERKNSt7__cxx1112basic_stringIcSt11char_traitsIcESaIcEEE
libonemkl_rng_mklcpu.so.0:_ZGTtNSt12out_of_rangeC2EPKc
libonemkl_rng_mklcpu.so.0:_ZGTtNSt12out_of_rangeC2ERKNSt7__cxx1112basic_stringIcSt11char_traitsIcESaIcEEE
libonemkl_rng_mklcpu.so.0:_ZGTtNSt12out_of_rangeD0Ev
libonemkl_rng_mklcpu.so.0:_ZGTtNSt12out_of_rangeD1Ev
libonemkl_rng_mklcpu.so.0:_ZGTtNSt12out_of_rangeD2Ev
libonemkl_rng_mklcpu.so.0:_ZGTtNSt13runtime_errorC1EPKc
libonemkl_rng_mklcpu.so.0:_ZGTtNSt13runtime_errorC1ERKNSt7__cxx1112basic_stringIcSt11char_traitsIcESaIcEEE
libonemkl_rng_mklcpu.so.0:_ZGTtNSt13runtime_errorC2EPKc
libonemkl_rng_mklcpu.so.0:_ZGTtNSt13runtime_errorC2ERKNSt7__cxx1112basic_stringIcSt11char_traitsIcESaIcEEE
libonemkl_rng_mklcpu.so.0:_ZGTtNSt13runtime_errorD0Ev
libonemkl_rng_mklcpu.so.0:_ZGTtNSt13runtime_errorD1Ev
libonemkl_rng_mklcpu.so.0:_ZGTtNSt13runtime_errorD2Ev
libonemkl_rng_mklcpu.so.0:_ZGTtNSt14overflow_errorC1EPKc
libonemkl_rng_mklcpu.so.0:_ZGTtNSt14overflow_errorC1ERKNSt7__cxx1112basic_stringIcSt11char_traitsIcESaIcEEE
libonemkl_rng_mklcpu.so.0:_ZGTtNSt14overflow_errorC2EPKc
libonemkl_rng_mklcpu.so.0:_ZGTtNSt14overflow_errorC2ERKNSt7__cxx1112basic_stringIcSt11char_traitsIcESaIcEEE
libonemkl_rng_mklcpu.so.0:_ZGTtNSt14overflow_errorD0Ev
libonemkl_rng_mklcpu.so.0:_ZGTtNSt14overflow_errorD1Ev
libonemkl_rng_mklcpu.so.0:_ZGTtNSt14overflow_errorD2Ev
libonemkl_rng_mklcpu.so.0:_ZGTtNSt15underflow_errorC1EPKc
libonemkl_rng_mklcpu.so.0:_ZGTtNSt15underflow_errorC1ERKNSt7__cxx1112basic_stringIcSt11char_traitsIcESaIcEEE
libonemkl_rng_mklcpu.so.0:_ZGTtNSt15underflow_errorC2EPKc
libonemkl_rng_mklcpu.so.0:_ZGTtNSt15underflow_errorC2ERKNSt7__cxx1112basic_stringIcSt11char_traitsIcESaIcEEE
libonemkl_rng_mklcpu.so.0:_ZGTtNSt15underflow_errorD0Ev
libonemkl_rng_mklcpu.so.0:_ZGTtNSt15underflow_errorD1Ev
libonemkl_rng_mklcpu.so.0:_ZGTtNSt15underflow_errorD2Ev
libonemkl_rng_mklcpu.so.0:_ZGTtNSt16invalid_argumentC1EPKc
libonemkl_rng_mklcpu.so.0:_ZGTtNSt16invalid_argumentC1ERKNSt7__cxx1112basic_stringIcSt11char_traitsIcESaIcEEE
libonemkl_rng_mklcpu.so.0:_ZGTtNSt16invalid_argumentC2EPKc
libonemkl_rng_mklcpu.so.0:_ZGTtNSt16invalid_argumentC2ERKNSt7__cxx1112basic_stringIcSt11char_traitsIcESaIcEEE
libonemkl_rng_mklcpu.so.0:_ZGTtNSt16invalid_argumentD0Ev
libonemkl_rng_mklcpu.so.0:_ZGTtNSt16invalid_argumentD1Ev
libonemkl_rng_mklcpu.so.0:_ZGTtNSt16invalid_argumentD2Ev
libonemkl_rng_mklcpu.so.0:_ZN10__cxxabiv111__terminateEPFvvE
libonemkl_rng_mklcpu.so.0:_ZN10__cxxabiv112__unexpectedEPFvvE
libonemkl_rng_mklcpu.so.0:_ZN10__cxxabiv115__forced_unwindD0Ev
libonemkl_rng_mklcpu.so.0:_ZN10__cxxabiv115__forced_unwindD1Ev
libonemkl_rng_mklcpu.so.0:_ZN10__cxxabiv115__forced_unwindD2Ev
libonemkl_rng_mklcpu.so.0:_ZN10__cxxabiv117__class_type_infoD0Ev
libonemkl_rng_mklcpu.so.0:_ZN10__cxxabiv117__class_type_infoD1Ev
libonemkl_rng_mklcpu.so.0:_ZN10__cxxabiv117__class_type_infoD2Ev
libonemkl_rng_mklcpu.so.0:_ZN10__cxxabiv119__foreign_exceptionD0Ev
libonemkl_rng_mklcpu.so.0:_ZN10__cxxabiv119__foreign_exceptionD1Ev
libonemkl_rng_mklcpu.so.0:_ZN10__cxxabiv119__foreign_exceptionD2Ev
libonemkl_rng_mklcpu.so.0:_ZN10__cxxabiv120__si_class_type_infoD0Ev
libonemkl_rng_mklcpu.so.0:_ZN10__cxxabiv120__si_class_type_infoD1Ev
libonemkl_rng_mklcpu.so.0:_ZN10__cxxabiv120__si_class_type_infoD2Ev
libonemkl_rng_mklcpu.so.0:_ZN10__cxxabiv121__vmi_class_type_infoD0Ev
libonemkl_rng_mklcpu.so.0:_ZN10__cxxabiv121__vmi_class_type_infoD1Ev
libonemkl_rng_mklcpu.so.0:_ZN10__cxxabiv121__vmi_class_type_infoD2Ev
libonemkl_rng_mklcpu.so.0:_ZN6oneapi3mkl3rng6mklcpu15create_mrg32k3aEN2cl4sycl5queueESt16initializer_listIjE
libonemkl_rng_mklcpu.so.0:_ZN6oneapi3mkl3rng6mklcpu15create_mrg32k3aEN2cl4sycl5queueEj
libonemkl_rng_mklcpu.so.0:_ZN6oneapi3mkl3rng6mklcpu20create_philox4x32x10EN2cl4sycl5queueESt16initializer_listImE
libonemkl_rng_mklcpu.so.0:_ZN6oneapi3mkl3rng6mklcpu20create_philox4x32x10EN2cl4sycl5queueEm
libonemkl_rng_mklcpu.so.0:_ZN9__gnu_cxx15__concat_size_tEPcmm
libonemkl_rng_mklcpu.so.0:_ZN9__gnu_cxx15__snprintf_liteEPcmPKcP13__va_list_tag
libonemkl_rng_mklcpu.so.0:_ZN9__gnu_cxx20recursive_init_errorC1Ev
libonemkl_rng_mklcpu.so.0:_ZN9__gnu_cxx20recursive_init_errorC2Ev
libonemkl_rng_mklcpu.so.0:_ZN9__gnu_cxx20recursive_init_errorD0Ev
libonemkl_rng_mklcpu.so.0:_ZN9__gnu_cxx20recursive_init_errorD1Ev
libonemkl_rng_mklcpu.so.0:_ZN9__gnu_cxx20recursive_init_errorD2Ev
libonemkl_rng_mklcpu.so.0:_ZN9__gnu_cxx26__throw_insufficient_spaceEPKcS1_
libonemkl_rng_mklcpu.so.0:_ZN9__gnu_cxx27__verbose_terminate_handlerEv
libonemkl_rng_mklcpu.so.0:_ZN9__gnu_cxx9__freeresEv
libonemkl_rng_mklcpu.so.0:_ZNK10__cxxabiv117__class_type_info10__do_catchEPKSt9type_infoPPvj
libonemkl_rng_mklcpu.so.0:_ZNK10__cxxabiv117__class_type_info11__do_upcastEPKS0_PKvRNS0_15__upcast_resultE
libonemkl_rng_mklcpu.so.0:_ZNK10__cxxabiv117__class_type_info11__do_upcastEPKS0_PPv
libonemkl_rng_mklcpu.so.0:_ZNK10__cxxabiv117__class_type_info12__do_dyncastElNS0_10__sub_kindEPKS0_PKvS3_S5_RNS0_16__dyncast_resultE
libonemkl_rng_mklcpu.so.0:_ZNK10__cxxabiv117__class_type_info20__do_find_public_srcElPKvPKS0_S2_
libonemkl_rng_mklcpu.so.0:_ZNK10__cxxabiv120__si_class_type_info11__do_upcastEPKNS_17__class_type_infoEPKvRNS1_15__upcast_resultE
libonemkl_rng_mklcpu.so.0:_ZNK10__cxxabiv120__si_class_type_info12__do_dyncastElNS_17__class_type_info10__sub_kindEPKS1_PKvS4_S6_RNS1_16__dyncast_resultE
libonemkl_rng_mklcpu.so.0:_ZNK10__cxxabiv120__si_class_type_info20__do_find_public_srcElPKvPKNS_17__class_type_infoES2_
libonemkl_rng_mklcpu.so.0:_ZNK10__cxxabiv121__vmi_class_type_info11__do_upcastEPKNS_17__class_type_infoEPKvRNS1_15__upcast_resultE
libonemkl_rng_mklcpu.so.0:_ZNK10__cxxabiv121__vmi_class_type_info12__do_dyncastElNS_17__class_type_info10__sub_kindEPKS1_PKvS4_S6_RNS1_16__dyncast_resultE
libonemkl_rng_mklcpu.so.0:_ZNK10__cxxabiv121__vmi_class_type_info20__do_find_public_srcElPKvPKNS_17__class_type_infoES2_
libonemkl_rng_mklcpu.so.0:_ZNKSt10bad_typeid4whatEv
libonemkl_rng_mklcpu.so.0:_ZNKSt10error_code23default_error_conditionEv
libonemkl_rng_mklcpu.so.0:_ZNKSt11__timepunctIcE6_M_putEPcmPKcPK2tm
libonemkl_rng_mklcpu.so.0:_ZNKSt11__timepunctIwE6_M_putEPwmPKwPK2tm
libonemkl_rng_mklcpu.so.0:_ZNKSt11logic_error4whatEv
libonemkl_rng_mklcpu.so.0:_ZNKSt12__basic_fileIcE7is_openEv
libonemkl_rng_mklcpu.so.0:_ZNKSt13bad_exception4whatEv
libonemkl_rng_mklcpu.so.0:_ZNKSt13random_device13_M_getentropyEv
libonemkl_rng_mklcpu.so.0:_ZNKSt13runtime_error4whatEv
libonemkl_rng_mklcpu.so.0:_ZNKSt19__codecvt_utf8_baseIDiE10do_unshiftER11__mbstate_tPcS3_RS3_
libonemkl_rng_mklcpu.so.0:_ZNKSt19__codecvt_utf8_baseIDiE11do_encodingEv
libonemkl_rng_mklcpu.so.0:_ZNKSt19__codecvt_utf8_baseIDiE13do_max_lengthEv
libonemkl_rng_mklcpu.so.0:_ZNKSt19__codecvt_utf8_baseIDiE16do_always_noconvEv
libonemkl_rng_mklcpu.so.0:_ZNKSt19__codecvt_utf8_baseIDiE5do_inER11__mbstate_tPKcS4_RS4_PDiS6_RS6_
libonemkl_rng_mklcpu.so.0:_ZNKSt19__codecvt_utf8_baseIDiE6do_outER11__mbstate_tPKDiS4_RS4_PcS6_RS6_
libonemkl_rng_mklcpu.so.0:_ZNKSt19__codecvt_utf8_baseIDiE9do_lengthER11__mbstate_tPKcS4_m
libonemkl_rng_mklcpu.so.0:_ZNKSt19__codecvt_utf8_baseIDsE10do_unshiftER11__mbstate_tPcS3_RS3_
libonemkl_rng_mklcpu.so.0:_ZNKSt19__codecvt_utf8_baseIDsE11do_encodingEv
libonemkl_rng_mklcpu.so.0:_ZNKSt19__codecvt_utf8_baseIDsE13do_max_lengthEv
libonemkl_rng_mklcpu.so.0:_ZNKSt19__codecvt_utf8_baseIDsE16do_always_noconvEv
libonemkl_rng_mklcpu.so.0:_ZNKSt19__codecvt_utf8_baseIDsE5do_inER11__mbstate_tPKcS4_RS4_PDsS6_RS6_
libonemkl_rng_mklcpu.so.0:_ZNKSt19__codecvt_utf8_baseIDsE6do_outER11__mbstate_tPKDsS4_RS4_PcS6_RS6_
libonemkl_rng_mklcpu.so.0:_ZNKSt19__codecvt_utf8_baseIDsE9do_lengthER11__mbstate_tPKcS4_m
libonemkl_rng_mklcpu.so.0:_ZNKSt19__codecvt_utf8_baseIwE10do_unshiftER11__mbstate_tPcS3_RS3_
libonemkl_rng_mklcpu.so.0:_ZNKSt19__codecvt_utf8_baseIwE11do_encodingEv
libonemkl_rng_mklcpu.so.0:_ZNKSt19__codecvt_utf8_baseIwE13do_max_lengthEv
libonemkl_rng_mklcpu.so.0:_ZNKSt19__codecvt_utf8_baseIwE16do_always_noconvEv
libonemkl_rng_mklcpu.so.0:_ZNKSt19__codecvt_utf8_baseIwE5do_inER11__mbstate_tPKcS4_RS4_PwS6_RS6_
libonemkl_rng_mklcpu.so.0:_ZNKSt19__codecvt_utf8_baseIwE6do_outER11__mbstate_tPKwS4_RS4_PcS6_RS6_
libonemkl_rng_mklcpu.so.0:_ZNKSt19__codecvt_utf8_baseIwE9do_lengthER11__mbstate_tPKcS4_m
libonemkl_rng_mklcpu.so.0:_ZNKSt19__iosfail_type_info11__do_upcastEPKN10__cxxabiv117__class_type_infoEPPv
libonemkl_rng_mklcpu.so.0:_ZNKSt20__codecvt_utf16_baseIDiE10do_unshiftER11__mbstate_tPcS3_RS3_
libonemkl_rng_mklcpu.so.0:_ZNKSt20__codecvt_utf16_baseIDiE11do_encodingEv
libonemkl_rng_mklcpu.so.0:_ZNKSt20__codecvt_utf16_baseIDiE13do_max_lengthEv
libonemkl_rng_mklcpu.so.0:_ZNKSt20__codecvt_utf16_baseIDiE16do_always_noconvEv
libonemkl_rng_mklcpu.so.0:_ZNKSt20__codecvt_utf16_baseIDiE5do_inER11__mbstate_tPKcS4_RS4_PDiS6_RS6_
libonemkl_rng_mklcpu.so.0:_ZNKSt20__codecvt_utf16_baseIDiE6do_outER11__mbstate_tPKDiS4_RS4_PcS6_RS6_
libonemkl_rng_mklcpu.so.0:_ZNKSt20__codecvt_utf16_baseIDiE9do_lengthER11__mbstate_tPKcS4_m
libonemkl_rng_mklcpu.so.0:_ZNKSt20__codecvt_utf16_baseIDsE10do_unshiftER11__mbstate_tPcS3_RS3_
libonemkl_rng_mklcpu.so.0:_ZNKSt20__codecvt_utf16_baseIDsE11do_encodingEv
libonemkl_rng_mklcpu.so.0:_ZNKSt20__codecvt_utf16_baseIDsE13do_max_lengthEv
libonemkl_rng_mklcpu.so.0:_ZNKSt20__codecvt_utf16_baseIDsE16do_always_noconvEv
libonemkl_rng_mklcpu.so.0:_ZNKSt20__codecvt_utf16_baseIDsE5do_inER11__mbstate_tPKcS4_RS4_PDsS6_RS6_
libonemkl_rng_mklcpu.so.0:_ZNKSt20__codecvt_utf16_baseIDsE6do_outER11__mbstate_tPKDsS4_RS4_PcS6_RS6_
libonemkl_rng_mklcpu.so.0:_ZNKSt20__codecvt_utf16_baseIDsE9do_lengthER11__mbstate_tPKcS4_m
libonemkl_rng_mklcpu.so.0:_ZNKSt20__codecvt_utf16_baseIwE10do_unshiftER11__mbstate_tPcS3_RS3_
libonemkl_rng_mklcpu.so.0:_ZNKSt20__codecvt_utf16_baseIwE11do_encodingEv
libonemkl_rng_mklcpu.so.0:_ZNKSt20__codecvt_utf16_baseIwE13do_max_lengthEv
libonemkl_rng_mklcpu.so.0:_ZNKSt20__codecvt_utf16_baseIwE16do_always_noconvEv
libonemkl_rng_mklcpu.so.0:_ZNKSt20__codecvt_utf16_baseIwE5do_inER11__mbstate_tPKcS4_RS4_PwS6_RS6_
libonemkl_rng_mklcpu.so.0:_ZNKSt20__codecvt_utf16_baseIwE6do_outER11__mbstate_tPKwS4_RS4_PcS6_RS6_
libonemkl_rng_mklcpu.so.0:_ZNKSt20__codecvt_utf16_baseIwE9do_lengthER11__mbstate_tPKcS4_m
libonemkl_rng_mklcpu.so.0:_ZNKSt20bad_array_new_length4whatEv
libonemkl_rng_mklcpu.so.0:_ZNKSt25__codecvt_utf8_utf16_baseIDiE10do_unshiftER11__mbstate_tPcS3_RS3_
libonemkl_rng_mklcpu.so.0:_ZNKSt25__codecvt_utf8_utf16_baseIDiE11do_encodingEv
libonemkl_rng_mklcpu.so.0:_ZNKSt25__codecvt_utf8_utf16_baseIDiE13do_max_lengthEv
libonemkl_rng_mklcpu.so.0:_ZNKSt25__codecvt_utf8_utf16_baseIDiE16do_always_noconvEv
libonemkl_rng_mklcpu.so.0:_ZNKSt25__codecvt_utf8_utf16_baseIDiE5do_inER11__mbstate_tPKcS4_RS4_PDiS6_RS6_
libonemkl_rng_mklcpu.so.0:_ZNKSt25__codecvt_utf8_utf16_baseIDiE6do_outER11__mbstate_tPKDiS4_RS4_PcS6_RS6_
libonemkl_rng_mklcpu.so.0:_ZNKSt25__codecvt_utf8_utf16_baseIDiE9do_lengthER11__mbstate_tPKcS4_m
libonemkl_rng_mklcpu.so.0:_ZNKSt25__codecvt_utf8_utf16_baseIDsE10do_unshiftER11__mbstate_tPcS3_RS3_
libonemkl_rng_mklcpu.so.0:_ZNKSt25__codecvt_utf8_utf16_baseIDsE11do_encodingEv
libonemkl_rng_mklcpu.so.0:_ZNKSt25__codecvt_utf8_utf16_baseIDsE13do_max_lengthEv
libonemkl_rng_mklcpu.so.0:_ZNKSt25__codecvt_utf8_utf16_baseIDsE16do_always_noconvEv
libonemkl_rng_mklcpu.so.0:_ZNKSt25__codecvt_utf8_utf16_baseIDsE5do_inER11__mbstate_tPKcS4_RS4_PDsS6_RS6_
libonemkl_rng_mklcpu.so.0:_ZNKSt25__codecvt_utf8_utf16_baseIDsE6do_outER11__mbstate_tPKDsS4_RS4_PcS6_RS6_
libonemkl_rng_mklcpu.so.0:_ZNKSt25__codecvt_utf8_utf16_baseIDsE9do_lengthER11__mbstate_tPKcS4_m
libonemkl_rng_mklcpu.so.0:_ZNKSt25__codecvt_utf8_utf16_baseIwE10do_unshiftER11__mbstate_tPcS3_RS3_
libonemkl_rng_mklcpu.so.0:_ZNKSt25__codecvt_utf8_utf16_baseIwE11do_encodingEv
libonemkl_rng_mklcpu.so.0:_ZNKSt25__codecvt_utf8_utf16_baseIwE13do_max_lengthEv
libonemkl_rng_mklcpu.so.0:_ZNKSt25__codecvt_utf8_utf16_baseIwE16do_always_noconvEv
libonemkl_rng_mklcpu.so.0:_ZNKSt25__codecvt_utf8_utf16_baseIwE5do_inER11__mbstate_tPKcS4_RS4_PwS6_RS6_
libonemkl_rng_mklcpu.so.0:_ZNKSt25__codecvt_utf8_utf16_baseIwE6do_outER11__mbstate_tPKwS4_RS4_PcS6_RS6_
libonemkl_rng_mklcpu.so.0:_ZNKSt25__codecvt_utf8_utf16_baseIwE9do_lengthER11__mbstate_tPKcS4_m
libonemkl_rng_mklcpu.so.0:_ZNKSt3_V214error_category10_M_messageB5cxx11Ei
libonemkl_rng_mklcpu.so.0:_ZNKSt3_V214error_category10_M_messageEi
libonemkl_rng_mklcpu.so.0:_ZNKSt3_V214error_category10equivalentERKSt10error_codei
libonemkl_rng_mklcpu.so.0:_ZNKSt3_V214error_category10equivalentEiRKSt15error_condition
libonemkl_rng_mklcpu.so.0:_ZNKSt3_V214error_category23default_error_conditionEi
libonemkl_rng_mklcpu.so.0:_ZNKSt5ctypeIcE10do_tolowerEPcPKc
libonemkl_rng_mklcpu.so.0:_ZNKSt5ctypeIcE10do_tolowerEc
libonemkl_rng_mklcpu.so.0:_ZNKSt5ctypeIcE10do_toupperEPcPKc
libonemkl_rng_mklcpu.so.0:_ZNKSt5ctypeIcE10do_toupperEc
libonemkl_rng_mklcpu.so.0:_ZNKSt5ctypeIcE13_M_widen_initEv
libonemkl_rng_mklcpu.so.0:_ZNKSt5ctypeIcE14_M_narrow_initEv
libonemkl_rng_mklcpu.so.0:_ZNKSt5ctypeIwE10do_scan_isEtPKwS2_
libonemkl_rng_mklcpu.so.0:_ZNKSt5ctypeIwE10do_tolowerEPwPKw
libonemkl_rng_mklcpu.so.0:_ZNKSt5ctypeIwE10do_tolowerEw
libonemkl_rng_mklcpu.so.0:_ZNKSt5ctypeIwE10do_toupperEPwPKw
libonemkl_rng_mklcpu.so.0:_ZNKSt5ctypeIwE10do_toupperEw
libonemkl_rng_mklcpu.so.0:_ZNKSt5ctypeIwE11do_scan_notEtPKwS2_
libonemkl_rng_mklcpu.so.0:_ZNKSt5ctypeIwE19_M_convert_to_wmaskEt
libonemkl_rng_mklcpu.so.0:_ZNKSt5ctypeIwE5do_isEPKwS2_Pt
libonemkl_rng_mklcpu.so.0:_ZNKSt5ctypeIwE5do_isEtw
libonemkl_rng_mklcpu.so.0:_ZNKSt5ctypeIwE8do_widenEPKcS2_Pw
libonemkl_rng_mklcpu.so.0:_ZNKSt5ctypeIwE8do_widenEc
libonemkl_rng_mklcpu.so.0:_ZNKSt5ctypeIwE9do_narrowEPKwS2_cPc
libonemkl_rng_mklcpu.so.0:_ZNKSt5ctypeIwE9do_narrowEwc
libonemkl_rng_mklcpu.so.0:_ZNKSt6locale2id5_M_idEv
libonemkl_rng_mklcpu.so.0:_ZNKSt6locale4nameB5cxx11Ev
libonemkl_rng_mklcpu.so.0:_ZNKSt6locale4nameEv
libonemkl_rng_mklcpu.so.0:_ZNKSt6locale5facet11_M_cow_shimEPKNS_2idE
libonemkl_rng_mklcpu.so.0:_ZNKSt6locale5facet11_M_sso_shimEPKNS_2idE
libonemkl_rng_mklcpu.so.0:_ZNKSt6localeeqERKS_
libonemkl_rng_mklcpu.so.0:_ZNKSt7__cxx117collateIcE10_M_compareEPKcS3_
libonemkl_rng_mklcpu.so.0:_ZNKSt7__cxx117collateIcE12_M_transformEPcPKcm
libonemkl_rng_mklcpu.so.0:_ZNKSt7__cxx117collateIwE10_M_compareEPKwS3_
libonemkl_rng_mklcpu.so.0:_ZNKSt7__cxx117collateIwE12_M_transformEPwPKwm
libonemkl_rng_mklcpu.so.0:_ZNKSt7__cxx118messagesIcE6do_getEiiiRKNS_12basic_stringIcSt11char_traitsIcESaIcEEE
libonemkl_rng_mklcpu.so.0:_ZNKSt7__cxx118messagesIcE7do_openERKNS_12basic_stringIcSt11char_traitsIcESaIcEEERKSt6locale
libonemkl_rng_mklcpu.so.0:_ZNKSt7__cxx118messagesIcE8do_closeEi
libonemkl_rng_mklcpu.so.0:_ZNKSt7__cxx118messagesIwE6do_getEiiiRKNS_12basic_stringIwSt11char_traitsIwESaIwEEE
libonemkl_rng_mklcpu.so.0:_ZNKSt7__cxx118messagesIwE7do_openERKNS_12basic_stringIcSt11char_traitsIcESaIcEEERKSt6locale
libonemkl_rng_mklcpu.so.0:_ZNKSt7__cxx118messagesIwE8do_closeEi
libonemkl_rng_mklcpu.so.0:_ZNKSt7codecvtIDiDu11__mbstate_tE10do_unshiftERS0_PDuS3_RS3_
libonemkl_rng_mklcpu.so.0:_ZNKSt7codecvtIDiDu11__mbstate_tE11do_encodingEv
libonemkl_rng_mklcpu.so.0:_ZNKSt7codecvtIDiDu11__mbstate_tE13do_max_lengthEv
libonemkl_rng_mklcpu.so.0:_ZNKSt7codecvtIDiDu11__mbstate_tE16do_always_noconvEv
libonemkl_rng_mklcpu.so.0:_ZNKSt7codecvtIDiDu11__mbstate_tE5do_inERS0_PKDuS4_RS4_PDiS6_RS6_
libonemkl_rng_mklcpu.so.0:_ZNKSt7codecvtIDiDu11__mbstate_tE6do_outERS0_PKDiS4_RS4_PDuS6_RS6_
libonemkl_rng_mklcpu.so.0:_ZNKSt7codecvtIDiDu11__mbstate_tE9do_lengthERS0_PKDuS4_m
libonemkl_rng_mklcpu.so.0:_ZNKSt7codecvtIDic11__mbstate_tE10do_unshiftERS0_PcS3_RS3_
libonemkl_rng_mklcpu.so.0:_ZNKSt7codecvtIDic11__mbstate_tE11do_encodingEv
libonemkl_rng_mklcpu.so.0:_ZNKSt7codecvtIDic11__mbstate_tE13do_max_lengthEv
libonemkl_rng_mklcpu.so.0:_ZNKSt7codecvtIDic11__mbstate_tE16do_always_noconvEv
libonemkl_rng_mklcpu.so.0:_ZNKSt7codecvtIDic11__mbstate_tE5do_inERS0_PKcS4_RS4_PDiS6_RS6_
libonemkl_rng_mklcpu.so.0:_ZNKSt7codecvtIDic11__mbstate_tE6do_outERS0_PKDiS4_RS4_PcS6_RS6_
libonemkl_rng_mklcpu.so.0:_ZNKSt7codecvtIDic11__mbstate_tE9do_lengthERS0_PKcS4_m
libonemkl_rng_mklcpu.so.0:_ZNKSt7codecvtIDsDu11__mbstate_tE10do_unshiftERS0_PDuS3_RS3_
libonemkl_rng_mklcpu.so.0:_ZNKSt7codecvtIDsDu11__mbstate_tE11do_encodingEv
libonemkl_rng_mklcpu.so.0:_ZNKSt7codecvtIDsDu11__mbstate_tE13do_max_lengthEv
libonemkl_rng_mklcpu.so.0:_ZNKSt7codecvtIDsDu11__mbstate_tE16do_always_noconvEv
libonemkl_rng_mklcpu.so.0:_ZNKSt7codecvtIDsDu11__mbstate_tE5do_inERS0_PKDuS4_RS4_PDsS6_RS6_
libonemkl_rng_mklcpu.so.0:_ZNKSt7codecvtIDsDu11__mbstate_tE6do_outERS0_PKDsS4_RS4_PDuS6_RS6_
libonemkl_rng_mklcpu.so.0:_ZNKSt7codecvtIDsDu11__mbstate_tE9do_lengthERS0_PKDuS4_m
libonemkl_rng_mklcpu.so.0:_ZNKSt7codecvtIDsc11__mbstate_tE10do_unshiftERS0_PcS3_RS3_
libonemkl_rng_mklcpu.so.0:_ZNKSt7codecvtIDsc11__mbstate_tE11do_encodingEv
libonemkl_rng_mklcpu.so.0:_ZNKSt7codecvtIDsc11__mbstate_tE13do_max_lengthEv
libonemkl_rng_mklcpu.so.0:_ZNKSt7codecvtIDsc11__mbstate_tE16do_always_noconvEv
libonemkl_rng_mklcpu.so.0:_ZNKSt7codecvtIDsc11__mbstate_tE5do_inERS0_PKcS4_RS4_PDsS6_RS6_
libonemkl_rng_mklcpu.so.0:_ZNKSt7codecvtIDsc11__mbstate_tE6do_outERS0_PKDsS4_RS4_PcS6_RS6_
libonemkl_rng_mklcpu.so.0:_ZNKSt7codecvtIDsc11__mbstate_tE9do_lengthERS0_PKcS4_m
libonemkl_rng_mklcpu.so.0:_ZNKSt7codecvtIcc11__mbstate_tE10do_unshiftERS0_PcS3_RS3_
libonemkl_rng_mklcpu.so.0:_ZNKSt7codecvtIcc11__mbstate_tE11do_encodingEv
libonemkl_rng_mklcpu.so.0:_ZNKSt7codecvtIcc11__mbstate_tE13do_max_lengthEv
libonemkl_rng_mklcpu.so.0:_ZNKSt7codecvtIcc11__mbstate_tE16do_always_noconvEv
libonemkl_rng_mklcpu.so.0:_ZNKSt7codecvtIcc11__mbstate_tE5do_inERS0_PKcS4_RS4_PcS6_RS6_
libonemkl_rng_mklcpu.so.0:_ZNKSt7codecvtIcc11__mbstate_tE6do_outERS0_PKcS4_RS4_PcS6_RS6_
libonemkl_rng_mklcpu.so.0:_ZNKSt7codecvtIcc11__mbstate_tE9do_lengthERS0_PKcS4_m
libonemkl_rng_mklcpu.so.0:_ZNKSt7codecvtIwc11__mbstate_tE10do_unshiftERS0_PcS3_RS3_
libonemkl_rng_mklcpu.so.0:_ZNKSt7codecvtIwc11__mbstate_tE11do_encodingEv
libonemkl_rng_mklcpu.so.0:_ZNKSt7codecvtIwc11__mbstate_tE13do_max_lengthEv
libonemkl_rng_mklcpu.so.0:_ZNKSt7codecvtIwc11__mbstate_tE16do_always_noconvEv
libonemkl_rng_mklcpu.so.0:_ZNKSt7codecvtIwc11__mbstate_tE5do_inERS0_PKcS4_RS4_PwS6_RS6_
libonemkl_rng_mklcpu.so.0:_ZNKSt7codecvtIwc11__mbstate_tE6do_outERS0_PKwS4_RS4_PcS6_RS6_
libonemkl_rng_mklcpu.so.0:_ZNKSt7codecvtIwc11__mbstate_tE9do_lengthERS0_PKcS4_m
libonemkl_rng_mklcpu.so.0:_ZNKSt7collateIcE10_M_compareEPKcS2_
libonemkl_rng_mklcpu.so.0:_ZNKSt7collateIcE12_M_transformEPcPKcm
libonemkl_rng_mklcpu.so.0:_ZNKSt7collateIwE10_M_compareEPKwS2_
libonemkl_rng_mklcpu.so.0:_ZNKSt7collateIwE12_M_transformEPwPKwm
libonemkl_rng_mklcpu.so.0:_ZNKSt8Catalogs6_M_getEi
libonemkl_rng_mklcpu.so.0:_ZNKSt8bad_cast4whatEv
libonemkl_rng_mklcpu.so.0:_ZNKSt8ios_base7failure4whatEv
libonemkl_rng_mklcpu.so.0:_ZNKSt8ios_base7failureB5cxx114whatEv
libonemkl_rng_mklcpu.so.0:_ZNKSt8messagesIcE6do_getEiiiRKSs
libonemkl_rng_mklcpu.so.0:_ZNKSt8messagesIcE7do_openERKSsRKSt6locale
libonemkl_rng_mklcpu.so.0:_ZNKSt8messagesIcE8do_closeEi
libonemkl_rng_mklcpu.so.0:_ZNKSt8messagesIwE6do_getEiiiRKSbIwSt11char_traitsIwESaIwEE
libonemkl_rng_mklcpu.so.0:_ZNKSt8messagesIwE7do_openERKSsRKSt6locale
libonemkl_rng_mklcpu.so.0:_ZNKSt8messagesIwE8do_closeEi
libonemkl_rng_mklcpu.so.0:_ZNKSt9bad_alloc4whatEv
libonemkl_rng_mklcpu.so.0:_ZNKSt9exception4whatEv
libonemkl_rng_mklcpu.so.0:_ZNKSt9type_info10__do_catchEPKS_PPvj
libonemkl_rng_mklcpu.so.0:_ZNKSt9type_info11__do_upcastEPKN10__cxxabiv117__class_type_infoEPPv
libonemkl_rng_mklcpu.so.0:_ZNKSt9type_info14__is_pointer_pEv
libonemkl_rng_mklcpu.so.0:_ZNKSt9type_info15__is_function_pEv
libonemkl_rng_mklcpu.so.0:_ZNSi6ignoreEl
libonemkl_rng_mklcpu.so.0:_ZNSi6ignoreEli
libonemkl_rng_mklcpu.so.0:_ZNSi7getlineEPclc
libonemkl_rng_mklcpu.so.0:_ZNSt10__num_base15_S_format_floatERKSt8ios_basePcc
libonemkl_rng_mklcpu.so.0:_ZNSt10bad_typeidD0Ev
libonemkl_rng_mklcpu.so.0:_ZNSt10bad_typeidD1Ev
libonemkl_rng_mklcpu.so.0:_ZNSt10bad_typeidD2Ev
libonemkl_rng_mklcpu.so.0:_ZNSt10money_base20_S_construct_patternEccc
libonemkl_rng_mklcpu.so.0:_ZNSt10moneypunctIcLb0EE24_M_initialize_moneypunctEP15__locale_structPKc
libonemkl_rng_mklcpu.so.0:_ZNSt10moneypunctIcLb0EED0Ev
libonemkl_rng_mklcpu.so.0:_ZNSt10moneypunctIcLb0EED1Ev
libonemkl_rng_mklcpu.so.0:_ZNSt10moneypunctIcLb0EED2Ev
libonemkl_rng_mklcpu.so.0:_ZNSt10moneypunctIcLb1EE24_M_initialize_moneypunctEP15__locale_structPKc
libonemkl_rng_mklcpu.so.0:_ZNSt10moneypunctIcLb1EED0Ev
libonemkl_rng_mklcpu.so.0:_ZNSt10moneypunctIcLb1EED1Ev
libonemkl_rng_mklcpu.so.0:_ZNSt10moneypunctIcLb1EED2Ev
libonemkl_rng_mklcpu.so.0:_ZNSt10moneypunctIwLb0EE24_M_initialize_moneypunctEP15__locale_structPKc
libonemkl_rng_mklcpu.so.0:_ZNSt10moneypunctIwLb0EED0Ev
libonemkl_rng_mklcpu.so.0:_ZNSt10moneypunctIwLb0EED1Ev
libonemkl_rng_mklcpu.so.0:_ZNSt10moneypunctIwLb0EED2Ev
libonemkl_rng_mklcpu.so.0:_ZNSt10moneypunctIwLb1EE24_M_initialize_moneypunctEP15__locale_structPKc
libonemkl_rng_mklcpu.so.0:_ZNSt10moneypunctIwLb1EED0Ev
libonemkl_rng_mklcpu.so.0:_ZNSt10moneypunctIwLb1EED1Ev
libonemkl_rng_mklcpu.so.0:_ZNSt10moneypunctIwLb1EED2Ev
libonemkl_rng_mklcpu.so.0:_ZNSt11__timepunctIcE23_M_initialize_timepunctEP15__locale_struct
libonemkl_rng_mklcpu.so.0:_ZNSt11__timepunctIwE23_M_initialize_timepunctEP15__locale_struct
libonemkl_rng_mklcpu.so.0:_ZNSt11logic_errorC1EOS_
libonemkl_rng_mklcpu.so.0:_ZNSt11logic_errorC1EPKc
libonemkl_rng_mklcpu.so.0:_ZNSt11logic_errorC1ERKNSt7__cxx1112basic_stringIcSt11char_traitsIcESaIcEEE
libonemkl_rng_mklcpu.so.0:_ZNSt11logic_errorC1ERKS_
libonemkl_rng_mklcpu.so.0:_ZNSt11logic_errorC1ERKSs
libonemkl_rng_mklcpu.so.0:_ZNSt11logic_errorC2EOS_
libonemkl_rng_mklcpu.so.0:_ZNSt11logic_errorC2EPKc
libonemkl_rng_mklcpu.so.0:_ZNSt11logic_errorC2ERKNSt7__cxx1112basic_stringIcSt11char_traitsIcESaIcEEE
libonemkl_rng_mklcpu.so.0:_ZNSt11logic_errorC2ERKS_
libonemkl_rng_mklcpu.so.0:_ZNSt11logic_errorC2ERKSs
libonemkl_rng_mklcpu.so.0:_ZNSt11logic_errorD0Ev
libonemkl_rng_mklcpu.so.0:_ZNSt11logic_errorD1Ev
libonemkl_rng_mklcpu.so.0:_ZNSt11logic_errorD2Ev
libonemkl_rng_mklcpu.so.0:_ZNSt11logic_erroraSEOS_
libonemkl_rng_mklcpu.so.0:_ZNSt11logic_erroraSERKS_
libonemkl_rng_mklcpu.so.0:_ZNSt11range_errorC1EPKc
libonemkl_rng_mklcpu.so.0:_ZNSt11range_errorC1ERKNSt7__cxx1112basic_stringIcSt11char_traitsIcESaIcEEE
libonemkl_rng_mklcpu.so.0:_ZNSt11range_errorC1ERKSs
libonemkl_rng_mklcpu.so.0:_ZNSt11range_errorC2EPKc
libonemkl_rng_mklcpu.so.0:_ZNSt11range_errorC2ERKNSt7__cxx1112basic_stringIcSt11char_traitsIcESaIcEEE
libonemkl_rng_mklcpu.so.0:_ZNSt11range_errorC2ERKSs
libonemkl_rng_mklcpu.so.0:_ZNSt11range_errorD0Ev
libonemkl_rng_mklcpu.so.0:_ZNSt11range_errorD1Ev
libonemkl_rng_mklcpu.so.0:_ZNSt11range_errorD2Ev
libonemkl_rng_mklcpu.so.0:_ZNSt12__basic_fileIcE2fdEv
libonemkl_rng_mklcpu.so.0:_ZNSt12__basic_fileIcE4fileEv
libonemkl_rng_mklcpu.so.0:_ZNSt12__basic_fileIcE4openEPKcSt13_Ios_Openmodei
libonemkl_rng_mklcpu.so.0:_ZNSt12__basic_fileIcE4syncEv
libonemkl_rng_mklcpu.so.0:_ZNSt12__basic_fileIcE5closeEv
libonemkl_rng_mklcpu.so.0:_ZNSt12__basic_fileIcE6xsgetnEPcl
libonemkl_rng_mklcpu.so.0:_ZNSt12__basic_fileIcE6xsputnEPKcl
libonemkl_rng_mklcpu.so.0:_ZNSt12__basic_fileIcE7seekoffElSt12_Ios_Seekdir
libonemkl_rng_mklcpu.so.0:_ZNSt12__basic_fileIcE8sys_openEP8_IO_FILESt13_Ios_Openmode
libonemkl_rng_mklcpu.so.0:_ZNSt12__basic_fileIcE8sys_openEiSt13_Ios_Openmode
libonemkl_rng_mklcpu.so.0:_ZNSt12__basic_fileIcE8xsputn_2EPKclS2_l
libonemkl_rng_mklcpu.so.0:_ZNSt12__basic_fileIcE9showmanycEv
libonemkl_rng_mklcpu.so.0:_ZNSt12__basic_fileIcEC1EP15pthread_mutex_t
libonemkl_rng_mklcpu.so.0:_ZNSt12__basic_fileIcEC2EP15pthread_mutex_t
libonemkl_rng_mklcpu.so.0:_ZNSt12__basic_fileIcED1Ev
libonemkl_rng_mklcpu.so.0:_ZNSt12__basic_fileIcED2Ev
libonemkl_rng_mklcpu.so.0:_ZNSt12__cow_stringC1EOS_
libonemkl_rng_mklcpu.so.0:_ZNSt12__cow_stringC1EPKcm
libonemkl_rng_mklcpu.so.0:_ZNSt12__cow_stringC1ERKNSt7__cxx1112basic_stringIcSt11char_traitsIcESaIcEEE
libonemkl_rng_mklcpu.so.0:_ZNSt12__cow_stringC1ERKS_
libonemkl_rng_mklcpu.so.0:_ZNSt12__cow_stringC1ERKSs
libonemkl_rng_mklcpu.so.0:_ZNSt12__cow_stringC1Ev
libonemkl_rng_mklcpu.so.0:_ZNSt12__cow_stringC2EOS_
libonemkl_rng_mklcpu.so.0:_ZNSt12__cow_stringC2EPKcm
libonemkl_rng_mklcpu.so.0:_ZNSt12__cow_stringC2ERKNSt7__cxx1112basic_stringIcSt11char_traitsIcESaIcEEE
libonemkl_rng_mklcpu.so.0:_ZNSt12__cow_stringC2ERKS_
libonemkl_rng_mklcpu.so.0:_ZNSt12__cow_stringC2ERKSs
libonemkl_rng_mklcpu.so.0:_ZNSt12__cow_stringC2Ev
libonemkl_rng_mklcpu.so.0:_ZNSt12__cow_stringD1Ev
libonemkl_rng_mklcpu.so.0:_ZNSt12__cow_stringD2Ev
libonemkl_rng_mklcpu.so.0:_ZNSt12__cow_stringaSEOS_
libonemkl_rng_mklcpu.so.0:_ZNSt12__cow_stringaSERKS_
libonemkl_rng_mklcpu.so.0:_ZNSt12__sso_stringC1EOS_
libonemkl_rng_mklcpu.so.0:_ZNSt12__sso_stringC1EPKcm
libonemkl_rng_mklcpu.so.0:_ZNSt12__sso_stringC1ERKNSt7__cxx1112basic_stringIcSt11char_traitsIcESaIcEEE
libonemkl_rng_mklcpu.so.0:_ZNSt12__sso_stringC1ERKS_
libonemkl_rng_mklcpu.so.0:_ZNSt12__sso_stringC1ERKSs
libonemkl_rng_mklcpu.so.0:_ZNSt12__sso_stringC1Ev
libonemkl_rng_mklcpu.so.0:_ZNSt12__sso_stringC2EOS_
libonemkl_rng_mklcpu.so.0:_ZNSt12__sso_stringC2EPKcm
libonemkl_rng_mklcpu.so.0:_ZNSt12__sso_stringC2ERKNSt7__cxx1112basic_stringIcSt11char_traitsIcESaIcEEE
libonemkl_rng_mklcpu.so.0:_ZNSt12__sso_stringC2ERKS_
libonemkl_rng_mklcpu.so.0:_ZNSt12__sso_stringC2ERKSs
libonemkl_rng_mklcpu.so.0:_ZNSt12__sso_stringC2Ev
libonemkl_rng_mklcpu.so.0:_ZNSt12__sso_stringD1Ev
libonemkl_rng_mklcpu.so.0:_ZNSt12__sso_stringD2Ev
libonemkl_rng_mklcpu.so.0:_ZNSt12__sso_stringaSEOS_
libonemkl_rng_mklcpu.so.0:_ZNSt12__sso_stringaSERKS_
libonemkl_rng_mklcpu.so.0:_ZNSt12ctype_bynameIcEC1EPKcm
libonemkl_rng_mklcpu.so.0:_ZNSt12ctype_bynameIcEC1ERKNSt7__cxx1112basic_stringIcSt11char_traitsIcESaIcEEEm
libonemkl_rng_mklcpu.so.0:_ZNSt12ctype_bynameIcEC1ERKSsm
libonemkl_rng_mklcpu.so.0:_ZNSt12ctype_bynameIcEC2EPKcm
libonemkl_rng_mklcpu.so.0:_ZNSt12ctype_bynameIcEC2ERKNSt7__cxx1112basic_stringIcSt11char_traitsIcESaIcEEEm
libonemkl_rng_mklcpu.so.0:_ZNSt12ctype_bynameIcEC2ERKSsm
libonemkl_rng_mklcpu.so.0:_ZNSt12ctype_bynameIcED0Ev
libonemkl_rng_mklcpu.so.0:_ZNSt12ctype_bynameIcED1Ev
libonemkl_rng_mklcpu.so.0:_ZNSt12ctype_bynameIcED2Ev
libonemkl_rng_mklcpu.so.0:_ZNSt12ctype_bynameIwEC1EPKcm
libonemkl_rng_mklcpu.so.0:_ZNSt12ctype_bynameIwEC1ERKNSt7__cxx1112basic_stringIcSt11char_traitsIcESaIcEEEm
libonemkl_rng_mklcpu.so.0:_ZNSt12ctype_bynameIwEC1ERKSsm
libonemkl_rng_mklcpu.so.0:_ZNSt12ctype_bynameIwEC2EPKcm
libonemkl_rng_mklcpu.so.0:_ZNSt12ctype_bynameIwEC2ERKNSt7__cxx1112basic_stringIcSt11char_traitsIcESaIcEEEm
libonemkl_rng_mklcpu.so.0:_ZNSt12ctype_bynameIwEC2ERKSsm
libonemkl_rng_mklcpu.so.0:_ZNSt12ctype_bynameIwED0Ev
libonemkl_rng_mklcpu.so.0:_ZNSt12ctype_bynameIwED1Ev
libonemkl_rng_mklcpu.so.0:_ZNSt12ctype_bynameIwED2Ev
libonemkl_rng_mklcpu.so.0:_ZNSt12domain_errorC1EPKc
libonemkl_rng_mklcpu.so.0:_ZNSt12domain_errorC1ERKNSt7__cxx1112basic_stringIcSt11char_traitsIcESaIcEEE
libonemkl_rng_mklcpu.so.0:_ZNSt12domain_errorC1ERKSs
libonemkl_rng_mklcpu.so.0:_ZNSt12domain_errorC2EPKc
libonemkl_rng_mklcpu.so.0:_ZNSt12domain_errorC2ERKNSt7__cxx1112basic_stringIcSt11char_traitsIcESaIcEEE
libonemkl_rng_mklcpu.so.0:_ZNSt12domain_errorC2ERKSs
libonemkl_rng_mklcpu.so.0:_ZNSt12domain_errorD0Ev
libonemkl_rng_mklcpu.so.0:_ZNSt12domain_errorD1Ev
libonemkl_rng_mklcpu.so.0:_ZNSt12domain_errorD2Ev
libonemkl_rng_mklcpu.so.0:_ZNSt12length_errorC1EPKc
libonemkl_rng_mklcpu.so.0:_ZNSt12length_errorC1ERKNSt7__cxx1112basic_stringIcSt11char_traitsIcESaIcEEE
libonemkl_rng_mklcpu.so.0:_ZNSt12length_errorC1ERKSs
libonemkl_rng_mklcpu.so.0:_ZNSt12length_errorC2EPKc
libonemkl_rng_mklcpu.so.0:_ZNSt12length_errorC2ERKNSt7__cxx1112basic_stringIcSt11char_traitsIcESaIcEEE
libonemkl_rng_mklcpu.so.0:_ZNSt12length_errorC2ERKSs
libonemkl_rng_mklcpu.so.0:_ZNSt12length_errorD0Ev
libonemkl_rng_mklcpu.so.0:_ZNSt12length_errorD1Ev
libonemkl_rng_mklcpu.so.0:_ZNSt12length_errorD2Ev
libonemkl_rng_mklcpu.so.0:_ZNSt12out_of_rangeC1EPKc
libonemkl_rng_mklcpu.so.0:_ZNSt12out_of_rangeC1ERKNSt7__cxx1112basic_stringIcSt11char_traitsIcESaIcEEE
libonemkl_rng_mklcpu.so.0:_ZNSt12out_of_rangeC1ERKSs
libonemkl_rng_mklcpu.so.0:_ZNSt12out_of_rangeC2EPKc
libonemkl_rng_mklcpu.so.0:_ZNSt12out_of_rangeC2ERKNSt7__cxx1112basic_stringIcSt11char_traitsIcESaIcEEE
libonemkl_rng_mklcpu.so.0:_ZNSt12out_of_rangeC2ERKSs
libonemkl_rng_mklcpu.so.0:_ZNSt12out_of_rangeD0Ev
libonemkl_rng_mklcpu.so.0:_ZNSt12out_of_rangeD1Ev
libonemkl_rng_mklcpu.so.0:_ZNSt12out_of_rangeD2Ev
libonemkl_rng_mklcpu.so.0:_ZNSt12system_errorD0Ev
libonemkl_rng_mklcpu.so.0:_ZNSt12system_errorD1Ev
libonemkl_rng_mklcpu.so.0:_ZNSt12system_errorD2Ev
libonemkl_rng_mklcpu.so.0:_ZNSt13bad_exceptionD0Ev
libonemkl_rng_mklcpu.so.0:_ZNSt13bad_exceptionD1Ev
libonemkl_rng_mklcpu.so.0:_ZNSt13bad_exceptionD2Ev
libonemkl_rng_mklcpu.so.0:_ZNSt13basic_istreamIwSt11char_traitsIwEE6ignoreEl
libonemkl_rng_mklcpu.so.0:_ZNSt13basic_istreamIwSt11char_traitsIwEE6ignoreElj
libonemkl_rng_mklcpu.so.0:_ZNSt13basic_istreamIwSt11char_traitsIwEE7getlineEPwlw
libonemkl_rng_mklcpu.so.0:_ZNSt13random_device14_M_init_pretr1ERKNSt7__cxx1112basic_stringIcSt11char_traitsIcESaIcEEE
libonemkl_rng_mklcpu.so.0:_ZNSt13random_device14_M_init_pretr1ERKSs
libonemkl_rng_mklcpu.so.0:_ZNSt13random_device16_M_getval_pretr1Ev
libonemkl_rng_mklcpu.so.0:_ZNSt13random_device7_M_finiEv
libonemkl_rng_mklcpu.so.0:_ZNSt13random_device7_M_initEPKcm
libonemkl_rng_mklcpu.so.0:_ZNSt13random_device7_M_initERKNSt7__cxx1112basic_stringIcSt11char_traitsIcESaIcEEE
libonemkl_rng_mklcpu.so.0:_ZNSt13random_device7_M_initERKSs
libonemkl_rng_mklcpu.so.0:_ZNSt13random_device9_M_getvalEv
libonemkl_rng_mklcpu.so.0:_ZNSt13runtime_errorC1EOS_
libonemkl_rng_mklcpu.so.0:_ZNSt13runtime_errorC1EPKc
libonemkl_rng_mklcpu.so.0:_ZNSt13runtime_errorC1ERKNSt7__cxx1112basic_stringIcSt11char_traitsIcESaIcEEE
libonemkl_rng_mklcpu.so.0:_ZNSt13runtime_errorC1ERKS_
libonemkl_rng_mklcpu.so.0:_ZNSt13runtime_errorC1ERKSs
libonemkl_rng_mklcpu.so.0:_ZNSt13runtime_errorC2EOS_
libonemkl_rng_mklcpu.so.0:_ZNSt13runtime_errorC2EPKc
libonemkl_rng_mklcpu.so.0:_ZNSt13runtime_errorC2ERKNSt7__cxx1112basic_stringIcSt11char_traitsIcESaIcEEE
libonemkl_rng_mklcpu.so.0:_ZNSt13runtime_errorC2ERKS_
libonemkl_rng_mklcpu.so.0:_ZNSt13runtime_errorC2ERKSs
libonemkl_rng_mklcpu.so.0:_ZNSt13runtime_errorD0Ev
libonemkl_rng_mklcpu.so.0:_ZNSt13runtime_errorD1Ev
libonemkl_rng_mklcpu.so.0:_ZNSt13runtime_errorD2Ev
libonemkl_rng_mklcpu.so.0:_ZNSt13runtime_erroraSEOS_
libonemkl_rng_mklcpu.so.0:_ZNSt13runtime_erroraSERKS_
libonemkl_rng_mklcpu.so.0:_ZNSt14overflow_errorC1EPKc
libonemkl_rng_mklcpu.so.0:_ZNSt14overflow_errorC1ERKNSt7__cxx1112basic_stringIcSt11char_traitsIcESaIcEEE
libonemkl_rng_mklcpu.so.0:_ZNSt14overflow_errorC1ERKSs
libonemkl_rng_mklcpu.so.0:_ZNSt14overflow_errorC2EPKc
libonemkl_rng_mklcpu.so.0:_ZNSt14overflow_errorC2ERKNSt7__cxx1112basic_stringIcSt11char_traitsIcESaIcEEE
libonemkl_rng_mklcpu.so.0:_ZNSt14overflow_errorC2ERKSs
libonemkl_rng_mklcpu.so.0:_ZNSt14overflow_errorD0Ev
libonemkl_rng_mklcpu.so.0:_ZNSt14overflow_errorD1Ev
libonemkl_rng_mklcpu.so.0:_ZNSt14overflow_errorD2Ev
libonemkl_rng_mklcpu.so.0:_ZNSt15underflow_errorC1EPKc
libonemkl_rng_mklcpu.so.0:_ZNSt15underflow_errorC1ERKNSt7__cxx1112basic_stringIcSt11char_traitsIcESaIcEEE
libonemkl_rng_mklcpu.so.0:_ZNSt15underflow_errorC1ERKSs
libonemkl_rng_mklcpu.so.0:_ZNSt15underflow_errorC2EPKc
libonemkl_rng_mklcpu.so.0:_ZNSt15underflow_errorC2ERKNSt7__cxx1112basic_stringIcSt11char_traitsIcESaIcEEE
libonemkl_rng_mklcpu.so.0:_ZNSt15underflow_errorC2ERKSs
libonemkl_rng_mklcpu.so.0:_ZNSt15underflow_errorD0Ev
libonemkl_rng_mklcpu.so.0:_ZNSt15underflow_errorD1Ev
libonemkl_rng_mklcpu.so.0:_ZNSt15underflow_errorD2Ev
libonemkl_rng_mklcpu.so.0:_ZNSt16invalid_argumentC1EPKc
libonemkl_rng_mklcpu.so.0:_ZNSt16invalid_argumentC1ERKNSt7__cxx1112basic_stringIcSt11char_traitsIcESaIcEEE
libonemkl_rng_mklcpu.so.0:_ZNSt16invalid_argumentC1ERKSs
libonemkl_rng_mklcpu.so.0:_ZNSt16invalid_argumentC2EPKc
libonemkl_rng_mklcpu.so.0:_ZNSt16invalid_argumentC2ERKNSt7__cxx1112basic_stringIcSt11char_traitsIcESaIcEEE
libonemkl_rng_mklcpu.so.0:_ZNSt16invalid_argumentC2ERKSs
libonemkl_rng_mklcpu.so.0:_ZNSt16invalid_argumentD0Ev
libonemkl_rng_mklcpu.so.0:_ZNSt16invalid_argumentD1Ev
libonemkl_rng_mklcpu.so.0:_ZNSt16invalid_argumentD2Ev
libonemkl_rng_mklcpu.so.0:_ZNSt19__codecvt_utf8_baseIDiED0Ev
libonemkl_rng_mklcpu.so.0:_ZNSt19__codecvt_utf8_baseIDiED1Ev
libonemkl_rng_mklcpu.so.0:_ZNSt19__codecvt_utf8_baseIDiED2Ev
libonemkl_rng_mklcpu.so.0:_ZNSt19__codecvt_utf8_baseIDsED0Ev
libonemkl_rng_mklcpu.so.0:_ZNSt19__codecvt_utf8_baseIDsED1Ev
libonemkl_rng_mklcpu.so.0:_ZNSt19__codecvt_utf8_baseIDsED2Ev
libonemkl_rng_mklcpu.so.0:_ZNSt19__codecvt_utf8_baseIwED0Ev
libonemkl_rng_mklcpu.so.0:_ZNSt19__codecvt_utf8_baseIwED1Ev
libonemkl_rng_mklcpu.so.0:_ZNSt19__codecvt_utf8_baseIwED2Ev
libonemkl_rng_mklcpu.so.0:_ZNSt19__iosfail_type_infoD0Ev
libonemkl_rng_mklcpu.so.0:_ZNSt19__iosfail_type_infoD1Ev
libonemkl_rng_mklcpu.so.0:_ZNSt19__iosfail_type_infoD2Ev
libonemkl_rng_mklcpu.so.0:_ZNSt20__codecvt_utf16_baseIDiED0Ev
libonemkl_rng_mklcpu.so.0:_ZNSt20__codecvt_utf16_baseIDiED1Ev
libonemkl_rng_mklcpu.so.0:_ZNSt20__codecvt_utf16_baseIDiED2Ev
libonemkl_rng_mklcpu.so.0:_ZNSt20__codecvt_utf16_baseIDsED0Ev
libonemkl_rng_mklcpu.so.0:_ZNSt20__codecvt_utf16_baseIDsED1Ev
libonemkl_rng_mklcpu.so.0:_ZNSt20__codecvt_utf16_baseIDsED2Ev
libonemkl_rng_mklcpu.so.0:_ZNSt20__codecvt_utf16_baseIwED0Ev
libonemkl_rng_mklcpu.so.0:_ZNSt20__codecvt_utf16_baseIwED1Ev
libonemkl_rng_mklcpu.so.0:_ZNSt20__codecvt_utf16_baseIwED2Ev
libonemkl_rng_mklcpu.so.0:_ZNSt20bad_array_new_lengthD0Ev
libonemkl_rng_mklcpu.so.0:_ZNSt20bad_array_new_lengthD1Ev
libonemkl_rng_mklcpu.so.0:_ZNSt20bad_array_new_lengthD2Ev
libonemkl_rng_mklcpu.so.0:_ZNSt25__codecvt_utf8_utf16_baseIDiED0Ev
libonemkl_rng_mklcpu.so.0:_ZNSt25__codecvt_utf8_utf16_baseIDiED1Ev
libonemkl_rng_mklcpu.so.0:_ZNSt25__codecvt_utf8_utf16_baseIDiED2Ev
libonemkl_rng_mklcpu.so.0:_ZNSt25__codecvt_utf8_utf16_baseIDsED0Ev
libonemkl_rng_mklcpu.so.0:_ZNSt25__codecvt_utf8_utf16_baseIDsED1Ev
libonemkl_rng_mklcpu.so.0:_ZNSt25__codecvt_utf8_utf16_baseIDsED2Ev
libonemkl_rng_mklcpu.so.0:_ZNSt25__codecvt_utf8_utf16_baseIwED0Ev
libonemkl_rng_mklcpu.so.0:_ZNSt25__codecvt_utf8_utf16_baseIwED1Ev
libonemkl_rng_mklcpu.so.0:_ZNSt25__codecvt_utf8_utf16_baseIwED2Ev
libonemkl_rng_mklcpu.so.0:_ZNSt3_V214error_categoryD0Ev
libonemkl_rng_mklcpu.so.0:_ZNSt3_V214error_categoryD1Ev
libonemkl_rng_mklcpu.so.0:_ZNSt3_V214error_categoryD2Ev
libonemkl_rng_mklcpu.so.0:_ZNSt3_V215system_categoryEv
libonemkl_rng_mklcpu.so.0:_ZNSt3_V216generic_categoryEv
libonemkl_rng_mklcpu.so.0:_ZNSt5ctypeIcE13classic_tableEv
libonemkl_rng_mklcpu.so.0:_ZNSt5ctypeIcEC1EP15__locale_structPKtbm
libonemkl_rng_mklcpu.so.0:_ZNSt5ctypeIcEC1EPKtbm
libonemkl_rng_mklcpu.so.0:_ZNSt5ctypeIcEC2EP15__locale_structPKtbm
libonemkl_rng_mklcpu.so.0:_ZNSt5ctypeIcEC2EPKtbm
libonemkl_rng_mklcpu.so.0:_ZNSt5ctypeIcED0Ev
libonemkl_rng_mklcpu.so.0:_ZNSt5ctypeIcED1Ev
libonemkl_rng_mklcpu.so.0:_ZNSt5ctypeIcED2Ev
libonemkl_rng_mklcpu.so.0:_ZNSt5ctypeIwE19_M_initialize_ctypeEv
libonemkl_rng_mklcpu.so.0:_ZNSt5ctypeIwEC1EP15__locale_structm
libonemkl_rng_mklcpu.so.0:_ZNSt5ctypeIwEC1Em
libonemkl_rng_mklcpu.so.0:_ZNSt5ctypeIwEC2EP15__locale_structm
libonemkl_rng_mklcpu.so.0:_ZNSt5ctypeIwEC2Em
libonemkl_rng_mklcpu.so.0:_ZNSt5ctypeIwED0Ev
libonemkl_rng_mklcpu.so.0:_ZNSt5ctypeIwED1Ev
libonemkl_rng_mklcpu.so.0:_ZNSt5ctypeIwED2Ev
libonemkl_rng_mklcpu.so.0:_ZNSt6locale13_S_initializeEv
libonemkl_rng_mklcpu.so.0:_ZNSt6locale18_S_initialize_onceEv
libonemkl_rng_mklcpu.so.0:_ZNSt6locale21_S_normalize_categoryEi
libonemkl_rng_mklcpu.so.0:_ZNSt6locale5_Impl13_M_init_extraEPPNS_5facetE
libonemkl_rng_mklcpu.so.0:_ZNSt6locale5_Impl13_M_init_extraEPvS1_PKcS3_
libonemkl_rng_mklcpu.so.0:_ZNSt6locale5_Impl16_M_install_cacheEPKNS_5facetEm
libonemkl_rng_mklcpu.so.0:_ZNSt6locale5_Impl16_M_install_facetEPKNS_2idEPKNS_5facetE
libonemkl_rng_mklcpu.so.0:_ZNSt6locale5_Impl16_M_replace_facetEPKS0_PKNS_2idE
libonemkl_rng_mklcpu.so.0:_ZNSt6locale5_Impl19_M_replace_categoryEPKS0_PKPKNS_2idE
libonemkl_rng_mklcpu.so.0:_ZNSt6locale5_ImplC1ERKS0_m
libonemkl_rng_mklcpu.so.0:_ZNSt6locale5_ImplC1Em
libonemkl_rng_mklcpu.so.0:_ZNSt6locale5_ImplC2ERKS0_m
libonemkl_rng_mklcpu.so.0:_ZNSt6locale5_ImplC2Em
libonemkl_rng_mklcpu.so.0:_ZNSt6locale5_ImplD1Ev
libonemkl_rng_mklcpu.so.0:_ZNSt6locale5_ImplD2Ev
libonemkl_rng_mklcpu.so.0:_ZNSt6locale5facet13_S_get_c_nameEv
libonemkl_rng_mklcpu.so.0:_ZNSt6locale5facet15_S_get_c_localeEv
libonemkl_rng_mklcpu.so.0:_ZNSt6locale5facet17_S_clone_c_localeERP15__locale_struct
libonemkl_rng_mklcpu.so.0:_ZNSt6locale5facet18_S_create_c_localeERP15__locale_structPKcS2_
libonemkl_rng_mklcpu.so.0:_ZNSt6locale5facet18_S_initialize_onceEv
libonemkl_rng_mklcpu.so.0:_ZNSt6locale5facet19_S_destroy_c_localeERP15__locale_struct
libonemkl_rng_mklcpu.so.0:_ZNSt6locale5facet20_S_lc_ctype_c_localeEP15__locale_structPKc
libonemkl_rng_mklcpu.so.0:_ZNSt6locale5facetD0Ev
libonemkl_rng_mklcpu.so.0:_ZNSt6locale5facetD1Ev
libonemkl_rng_mklcpu.so.0:_ZNSt6locale5facetD2Ev
libonemkl_rng_mklcpu.so.0:_ZNSt6locale6globalERKS_
libonemkl_rng_mklcpu.so.0:_ZNSt6locale7classicEv
libonemkl_rng_mklcpu.so.0:_ZNSt6localeC1EPNS_5_ImplE
libonemkl_rng_mklcpu.so.0:_ZNSt6localeC1ERKS_
libonemkl_rng_mklcpu.so.0:_ZNSt6localeC1Ev
libonemkl_rng_mklcpu.so.0:_ZNSt6localeC2EPNS_5_ImplE
libonemkl_rng_mklcpu.so.0:_ZNSt6localeC2ERKS_
libonemkl_rng_mklcpu.so.0:_ZNSt6localeC2Ev
libonemkl_rng_mklcpu.so.0:_ZNSt6localeD1Ev
libonemkl_rng_mklcpu.so.0:_ZNSt6localeD2Ev
libonemkl_rng_mklcpu.so.0:_ZNSt6localeaSERKS_
libonemkl_rng_mklcpu.so.0:_ZNSt7__cxx1110moneypunctIcLb0EE24_M_initialize_moneypunctEP15__locale_structPKc
libonemkl_rng_mklcpu.so.0:_ZNSt7__cxx1110moneypunctIcLb0EED0Ev
libonemkl_rng_mklcpu.so.0:_ZNSt7__cxx1110moneypunctIcLb0EED1Ev
libonemkl_rng_mklcpu.so.0:_ZNSt7__cxx1110moneypunctIcLb0EED2Ev
libonemkl_rng_mklcpu.so.0:_ZNSt7__cxx1110moneypunctIcLb1EE24_M_initialize_moneypunctEP15__locale_structPKc
libonemkl_rng_mklcpu.so.0:_ZNSt7__cxx1110moneypunctIcLb1EED0Ev
libonemkl_rng_mklcpu.so.0:_ZNSt7__cxx1110moneypunctIcLb1EED1Ev
libonemkl_rng_mklcpu.so.0:_ZNSt7__cxx1110moneypunctIcLb1EED2Ev
libonemkl_rng_mklcpu.so.0:_ZNSt7__cxx1110moneypunctIwLb0EE24_M_initialize_moneypunctEP15__locale_structPKc
libonemkl_rng_mklcpu.so.0:_ZNSt7__cxx1110moneypunctIwLb0EED0Ev
libonemkl_rng_mklcpu.so.0:_ZNSt7__cxx1110moneypunctIwLb0EED1Ev
libonemkl_rng_mklcpu.so.0:_ZNSt7__cxx1110moneypunctIwLb0EED2Ev
libonemkl_rng_mklcpu.so.0:_ZNSt7__cxx1110moneypunctIwLb1EE24_M_initialize_moneypunctEP15__locale_structPKc
libonemkl_rng_mklcpu.so.0:_ZNSt7__cxx1110moneypunctIwLb1EED0Ev
libonemkl_rng_mklcpu.so.0:_ZNSt7__cxx1110moneypunctIwLb1EED1Ev
libonemkl_rng_mklcpu.so.0:_ZNSt7__cxx1110moneypunctIwLb1EED2Ev
libonemkl_rng_mklcpu.so.0:_ZNSt7__cxx118numpunctIcE22_M_initialize_numpunctEP15__locale_struct
libonemkl_rng_mklcpu.so.0:_ZNSt7__cxx118numpunctIcED0Ev
libonemkl_rng_mklcpu.so.0:_ZNSt7__cxx118numpunctIcED1Ev
libonemkl_rng_mklcpu.so.0:_ZNSt7__cxx118numpunctIcED2Ev
libonemkl_rng_mklcpu.so.0:_ZNSt7__cxx118numpunctIwE22_M_initialize_numpunctEP15__locale_struct
libonemkl_rng_mklcpu.so.0:_ZNSt7__cxx118numpunctIwED0Ev
libonemkl_rng_mklcpu.so.0:_ZNSt7__cxx118numpunctIwED1Ev
libonemkl_rng_mklcpu.so.0:_ZNSt7__cxx118numpunctIwED2Ev
libonemkl_rng_mklcpu.so.0:_ZNSt7codecvtIDiDu11__mbstate_tED0Ev
libonemkl_rng_mklcpu.so.0:_ZNSt7codecvtIDiDu11__mbstate_tED1Ev
libonemkl_rng_mklcpu.so.0:_ZNSt7codecvtIDiDu11__mbstate_tED2Ev
libonemkl_rng_mklcpu.so.0:_ZNSt7codecvtIDic11__mbstate_tED0Ev
libonemkl_rng_mklcpu.so.0:_ZNSt7codecvtIDic11__mbstate_tED1Ev
libonemkl_rng_mklcpu.so.0:_ZNSt7codecvtIDic11__mbstate_tED2Ev
libonemkl_rng_mklcpu.so.0:_ZNSt7codecvtIDsDu11__mbstate_tED0Ev
libonemkl_rng_mklcpu.so.0:_ZNSt7codecvtIDsDu11__mbstate_tED1Ev
libonemkl_rng_mklcpu.so.0:_ZNSt7codecvtIDsDu11__mbstate_tED2Ev
libonemkl_rng_mklcpu.so.0:_ZNSt7codecvtIDsc11__mbstate_tED0Ev
libonemkl_rng_mklcpu.so.0:_ZNSt7codecvtIDsc11__mbstate_tED1Ev
libonemkl_rng_mklcpu.so.0:_ZNSt7codecvtIDsc11__mbstate_tED2Ev
libonemkl_rng_mklcpu.so.0:_ZNSt7codecvtIcc11__mbstate_tEC1EP15__locale_structm
libonemkl_rng_mklcpu.so.0:_ZNSt7codecvtIcc11__mbstate_tEC1Em
libonemkl_rng_mklcpu.so.0:_ZNSt7codecvtIcc11__mbstate_tEC2EP15__locale_structm
libonemkl_rng_mklcpu.so.0:_ZNSt7codecvtIcc11__mbstate_tEC2Em
libonemkl_rng_mklcpu.so.0:_ZNSt7codecvtIcc11__mbstate_tED0Ev
libonemkl_rng_mklcpu.so.0:_ZNSt7codecvtIcc11__mbstate_tED1Ev
libonemkl_rng_mklcpu.so.0:_ZNSt7codecvtIcc11__mbstate_tED2Ev
libonemkl_rng_mklcpu.so.0:_ZNSt7codecvtIwc11__mbstate_tEC1EP15__locale_structm
libonemkl_rng_mklcpu.so.0:_ZNSt7codecvtIwc11__mbstate_tEC1Em
libonemkl_rng_mklcpu.so.0:_ZNSt7codecvtIwc11__mbstate_tEC2EP15__locale_structm
libonemkl_rng_mklcpu.so.0:_ZNSt7codecvtIwc11__mbstate_tEC2Em
libonemkl_rng_mklcpu.so.0:_ZNSt7codecvtIwc11__mbstate_tED0Ev
libonemkl_rng_mklcpu.so.0:_ZNSt7codecvtIwc11__mbstate_tED1Ev
libonemkl_rng_mklcpu.so.0:_ZNSt7codecvtIwc11__mbstate_tED2Ev
libonemkl_rng_mklcpu.so.0:_ZNSt8Catalogs6_M_addEPKcSt6locale
libonemkl_rng_mklcpu.so.0:_ZNSt8Catalogs8_M_eraseEi
libonemkl_rng_mklcpu.so.0:_ZNSt8CatalogsD1Ev
libonemkl_rng_mklcpu.so.0:_ZNSt8CatalogsD2Ev
libonemkl_rng_mklcpu.so.0:_ZNSt8bad_castD0Ev
libonemkl_rng_mklcpu.so.0:_ZNSt8bad_castD1Ev
libonemkl_rng_mklcpu.so.0:_ZNSt8bad_castD2Ev
libonemkl_rng_mklcpu.so.0:_ZNSt8ios_base13_M_grow_wordsEib
libonemkl_rng_mklcpu.so.0:_ZNSt8ios_base15sync_with_stdioEb
libonemkl_rng_mklcpu.so.0:_ZNSt8ios_base17_M_call_callbacksENS_5eventE
libonemkl_rng_mklcpu.so.0:_ZNSt8ios_base17register_callbackEPFvNS_5eventERS_iEi
libonemkl_rng_mklcpu.so.0:_ZNSt8ios_base20_M_dispose_callbacksEv
libonemkl_rng_mklcpu.so.0:_ZNSt8ios_base4InitC1Ev
libonemkl_rng_mklcpu.so.0:_ZNSt8ios_base4InitC2Ev
libonemkl_rng_mklcpu.so.0:_ZNSt8ios_base4InitD1Ev
libonemkl_rng_mklcpu.so.0:_ZNSt8ios_base4InitD2Ev
libonemkl_rng_mklcpu.so.0:_ZNSt8ios_base5imbueERKSt6locale
libonemkl_rng_mklcpu.so.0:_ZNSt8ios_base6xallocEv
libonemkl_rng_mklcpu.so.0:_ZNSt8ios_base7_M_initEv
libonemkl_rng_mklcpu.so.0:_ZNSt8ios_base7_M_moveERS_
libonemkl_rng_mklcpu.so.0:_ZNSt8ios_base7_M_swapERS_
libonemkl_rng_mklcpu.so.0:_ZNSt8ios_base7failureB5cxx11C1EPKcRKSt10error_code
libonemkl_rng_mklcpu.so.0:_ZNSt8ios_base7failureB5cxx11C1ERKNSt7__cxx1112basic_stringIcSt11char_traitsIcESaIcEEE
libonemkl_rng_mklcpu.so.0:_ZNSt8ios_base7failureB5cxx11C1ERKNSt7__cxx1112basic_stringIcSt11char_traitsIcESaIcEEERKSt10error_code
libonemkl_rng_mklcpu.so.0:_ZNSt8ios_base7failureB5cxx11C2EPKcRKSt10error_code
libonemkl_rng_mklcpu.so.0:_ZNSt8ios_base7failureB5cxx11C2ERKNSt7__cxx1112basic_stringIcSt11char_traitsIcESaIcEEE
libonemkl_rng_mklcpu.so.0:_ZNSt8ios_base7failureB5cxx11C2ERKNSt7__cxx1112basic_stringIcSt11char_traitsIcESaIcEEERKSt10error_code
libonemkl_rng_mklcpu.so.0:_ZNSt8ios_base7failureB5cxx11D0Ev
libonemkl_rng_mklcpu.so.0:_ZNSt8ios_base7failureB5cxx11D1Ev
libonemkl_rng_mklcpu.so.0:_ZNSt8ios_base7failureB5cxx11D2Ev
libonemkl_rng_mklcpu.so.0:_ZNSt8ios_base7failureC1ERKSs
libonemkl_rng_mklcpu.so.0:_ZNSt8ios_base7failureC2ERKSs
libonemkl_rng_mklcpu.so.0:_ZNSt8ios_base7failureD0Ev
libonemkl_rng_mklcpu.so.0:_ZNSt8ios_base7failureD1Ev
libonemkl_rng_mklcpu.so.0:_ZNSt8ios_base7failureD2Ev
libonemkl_rng_mklcpu.so.0:_ZNSt8ios_baseC1Ev
libonemkl_rng_mklcpu.so.0:_ZNSt8ios_baseC2Ev
libonemkl_rng_mklcpu.so.0:_ZNSt8ios_baseD0Ev
libonemkl_rng_mklcpu.so.0:_ZNSt8ios_baseD1Ev
libonemkl_rng_mklcpu.so.0:_ZNSt8ios_baseD2Ev
libonemkl_rng_mklcpu.so.0:_ZNSt8numpunctIcE22_M_initialize_numpunctEP15__locale_struct
libonemkl_rng_mklcpu.so.0:_ZNSt8numpunctIcED0Ev
libonemkl_rng_mklcpu.so.0:_ZNSt8numpunctIcED1Ev
libonemkl_rng_mklcpu.so.0:_ZNSt8numpunctIcED2Ev
libonemkl_rng_mklcpu.so.0:_ZNSt8numpunctIwE22_M_initialize_numpunctEP15__locale_struct
libonemkl_rng_mklcpu.so.0:_ZNSt8numpunctIwED0Ev
libonemkl_rng_mklcpu.so.0:_ZNSt8numpunctIwED1Ev
libonemkl_rng_mklcpu.so.0:_ZNSt8numpunctIwED2Ev
libonemkl_rng_mklcpu.so.0:_ZNSt9bad_allocD0Ev
libonemkl_rng_mklcpu.so.0:_ZNSt9bad_allocD1Ev
libonemkl_rng_mklcpu.so.0:_ZNSt9bad_allocD2Ev
libonemkl_rng_mklcpu.so.0:_ZNSt9exceptionD0Ev
libonemkl_rng_mklcpu.so.0:_ZNSt9exceptionD1Ev
libonemkl_rng_mklcpu.so.0:_ZNSt9exceptionD2Ev
libonemkl_rng_mklcpu.so.0:_ZNSt9type_infoD0Ev
libonemkl_rng_mklcpu.so.0:_ZNSt9type_infoD1Ev
libonemkl_rng_mklcpu.so.0:_ZNSt9type_infoD2Ev
libonemkl_rng_mklcpu.so.0:_ZSt10unexpectedv
libonemkl_rng_mklcpu.so.0:_ZSt12get_catalogsv
libonemkl_rng_mklcpu.so.0:_ZSt13get_terminatev
libonemkl_rng_mklcpu.so.0:_ZSt13set_terminatePFvvE
libonemkl_rng_mklcpu.so.0:_ZSt14__convert_to_vIdEvPKcRT_RSt12_Ios_IostateRKP15__locale_struct
libonemkl_rng_mklcpu.so.0:_ZSt14__convert_to_vIeEvPKcRT_RSt12_Ios_IostateRKP15__locale_struct
libonemkl_rng_mklcpu.so.0:_ZSt14__convert_to_vIfEvPKcRT_RSt12_Ios_IostateRKP15__locale_struct
libonemkl_rng_mklcpu.so.0:_ZSt14get_unexpectedv
libonemkl_rng_mklcpu.so.0:_ZSt14set_unexpectedPFvvE
libonemkl_rng_mklcpu.so.0:_ZSt15get_new_handlerv
libonemkl_rng_mklcpu.so.0:_ZSt15set_new_handlerPFvvE
libonemkl_rng_mklcpu.so.0:_ZSt16__throw_bad_castv
libonemkl_rng_mklcpu.so.0:_ZSt17__istream_extractRSiPcl
libonemkl_rng_mklcpu.so.0:_ZSt17__throw_bad_allocv
libonemkl_rng_mklcpu.so.0:_ZSt17__verify_groupingPKcmRKNSt7__cxx1112basic_stringIcSt11char_traitsIcESaIcEEE
libonemkl_rng_mklcpu.so.0:_ZSt17__verify_groupingPKcmRKSs
libonemkl_rng_mklcpu.so.0:_ZSt17iostream_categoryv
libonemkl_rng_mklcpu.so.0:_ZSt18_Rb_tree_decrementPKSt18_Rb_tree_node_base
libonemkl_rng_mklcpu.so.0:_ZSt18_Rb_tree_decrementPSt18_Rb_tree_node_base
libonemkl_rng_mklcpu.so.0:_ZSt18_Rb_tree_incrementPKSt18_Rb_tree_node_base
libonemkl_rng_mklcpu.so.0:_ZSt18_Rb_tree_incrementPSt18_Rb_tree_node_base
libonemkl_rng_mklcpu.so.0:_ZSt18__throw_bad_typeidv
libonemkl_rng_mklcpu.so.0:_ZSt18uncaught_exceptionv
libonemkl_rng_mklcpu.so.0:_ZSt19__throw_ios_failurePKc
libonemkl_rng_mklcpu.so.0:_ZSt19__throw_ios_failurePKci
libonemkl_rng_mklcpu.so.0:_ZSt19__throw_logic_errorPKc
libonemkl_rng_mklcpu.so.0:_ZSt19__throw_range_errorPKc
libonemkl_rng_mklcpu.so.0:_ZSt19uncaught_exceptionsv
libonemkl_rng_mklcpu.so.0:_ZSt20_Rb_tree_black_countPKSt18_Rb_tree_node_baseS1_
libonemkl_rng_mklcpu.so.0:_ZSt20_Rb_tree_rotate_leftPSt18_Rb_tree_node_baseRS0_
libonemkl_rng_mklcpu.so.0:_ZSt20__throw_domain_errorPKc
libonemkl_rng_mklcpu.so.0:_ZSt20__throw_length_errorPKc
libonemkl_rng_mklcpu.so.0:_ZSt20__throw_out_of_rangePKc
libonemkl_rng_mklcpu.so.0:_ZSt20__throw_system_errori
libonemkl_rng_mklcpu.so.0:_ZSt21_Rb_tree_rotate_rightPSt18_Rb_tree_node_baseRS0_
libonemkl_rng_mklcpu.so.0:_ZSt21__copy_streambufs_eofIcSt11char_traitsIcEElPSt15basic_streambufIT_T0_ES6_Rb
libonemkl_rng_mklcpu.so.0:_ZSt21__copy_streambufs_eofIwSt11char_traitsIwEElPSt15basic_streambufIT_T0_ES6_Rb
libonemkl_rng_mklcpu.so.0:_ZSt21__destroy_ios_failurePv
libonemkl_rng_mklcpu.so.0:_ZSt21__throw_bad_exceptionv
libonemkl_rng_mklcpu.so.0:_ZSt21__throw_runtime_errorPKc
libonemkl_rng_mklcpu.so.0:_ZSt22__throw_overflow_errorPKc
libonemkl_rng_mklcpu.so.0:_ZSt22__verify_grouping_implPKcmS0_m
libonemkl_rng_mklcpu.so.0:_ZSt23__construct_ios_failurePvPKc
libonemkl_rng_mklcpu.so.0:_ZSt23__throw_underflow_errorPKc
libonemkl_rng_mklcpu.so.0:_ZSt24__is_ios_failure_handlerPKN10__cxxabiv117__class_type_infoE
libonemkl_rng_mklcpu.so.0:_ZSt24__narrow_multibyte_charsPKcP15__locale_struct
libonemkl_rng_mklcpu.so.0:_ZSt24__throw_invalid_argumentPKc
libonemkl_rng_mklcpu.so.0:_ZSt24__throw_out_of_range_fmtPKcz
libonemkl_rng_mklcpu.so.0:_ZSt28_Rb_tree_rebalance_for_erasePSt18_Rb_tree_node_baseRS_
libonemkl_rng_mklcpu.so.0:_ZSt28__throw_bad_array_new_lengthv
libonemkl_rng_mklcpu.so.0:_ZSt29_Rb_tree_insert_and_rebalancebPSt18_Rb_tree_node_baseS0_RS_
libonemkl_rng_mklcpu.so.0:_ZSt9terminatev
libonemkl_rng_mklcpu.so.0:_ZdaPv
libonemkl_rng_mklcpu.so.0:_ZdlPv
libonemkl_rng_mklcpu.so.0:_ZdlPvm
libonemkl_rng_mklcpu.so.0:_Znam
libonemkl_rng_mklcpu.so.0:_ZnamRKSt9nothrow_t
libonemkl_rng_mklcpu.so.0:_Znwm
libonemkl_rng_mklcpu.so.0:__addq
libonemkl_rng_mklcpu.so.0:__cacheSize
libonemkl_rng_mklcpu.so.0:__compareq
libonemkl_rng_mklcpu.so.0:__cxa_allocate_dependent_exception
libonemkl_rng_mklcpu.so.0:__cxa_allocate_exception
libonemkl_rng_mklcpu.so.0:__cxa_bad_cast
libonemkl_rng_mklcpu.so.0:__cxa_bad_typeid
libonemkl_rng_mklcpu.so.0:__cxa_begin_catch
libonemkl_rng_mklcpu.so.0:__cxa_call_terminate
libonemkl_rng_mklcpu.so.0:__cxa_call_unexpected
libonemkl_rng_mklcpu.so.0:__cxa_current_exception_type
libonemkl_rng_mklcpu.so.0:__cxa_deleted_virtual
libonemkl_rng_mklcpu.so.0:__cxa_demangle
libonemkl_rng_mklcpu.so.0:__cxa_end_catch
libonemkl_rng_mklcpu.so.0:__cxa_free_dependent_exception
libonemkl_rng_mklcpu.so.0:__cxa_free_exception
libonemkl_rng_mklcpu.so.0:__cxa_get_exception_ptr
libonemkl_rng_mklcpu.so.0:__cxa_get_globals
libonemkl_rng_mklcpu.so.0:__cxa_get_globals_fast
libonemkl_rng_mklcpu.so.0:__cxa_guard_abort
libonemkl_rng_mklcpu.so.0:__cxa_guard_acquire
libonemkl_rng_mklcpu.so.0:__cxa_guard_release
libonemkl_rng_mklcpu.so.0:__cxa_init_primary_exception
libonemkl_rng_mklcpu.so.0:__cxa_pure_virtual
libonemkl_rng_mklcpu.so.0:__cxa_rethrow
libonemkl_rng_mklcpu.so.0:__cxa_throw
libonemkl_rng_mklcpu.so.0:__cxa_throw_bad_array_new_length
libonemkl_rng_mklcpu.so.0:__divq
libonemkl_rng_mklcpu.so.0:__divq.A
libonemkl_rng_mklcpu.so.0:__divq.L
libonemkl_rng_mklcpu.so.0:__dtoq
libonemkl_rng_mklcpu.so.0:__dynamic_cast
libonemkl_rng_mklcpu.so.0:__eqq
libonemkl_rng_mklcpu.so.0:__ftoq
libonemkl_rng_mklcpu.so.0:__gcclibcxx_demangle_callback
libonemkl_rng_mklcpu.so.0:__geq
libonemkl_rng_mklcpu.so.0:__gtq
libonemkl_rng_mklcpu.so.0:__gxx_personality_v0
libonemkl_rng_mklcpu.so.0:__intel_avx_rep_memcpy
libonemkl_rng_mklcpu.so.0:__intel_avx_rep_memset
libonemkl_rng_mklcpu.so.0:__intel_cpu_features_init_x
libonemkl_rng_mklcpu.so.0:__intel_memcpy
libonemkl_rng_mklcpu.so.0:__intel_memset
libonemkl_rng_mklcpu.so.0:__intel_mic_avx512f_memcpy
libonemkl_rng_mklcpu.so.0:__intel_mic_avx512f_memset
libonemkl_rng_mklcpu.so.0:__intel_new_memcpy
libonemkl_rng_mklcpu.so.0:__intel_new_memset
libonemkl_rng_mklcpu.so.0:__intel_ssse3_memcpy
libonemkl_rng_mklcpu.so.0:__intel_ssse3_rep_memcpy
libonemkl_rng_mklcpu.so.0:__leq
libonemkl_rng_mklcpu.so.0:__ltoq
libonemkl_rng_mklcpu.so.0:__ltq
libonemkl_rng_mklcpu.so.0:__mulq
libonemkl_rng_mklcpu.so.0:__mulq.A
libonemkl_rng_mklcpu.so.0:__mulq.L
libonemkl_rng_mklcpu.so.0:__negq
libonemkl_rng_mklcpu.so.0:__neq
libonemkl_rng_mklcpu.so.0:__qtod
libonemkl_rng_mklcpu.so.0:__qtof
libonemkl_rng_mklcpu.so.0:__qtol
libonemkl_rng_mklcpu.so.0:__subq
libonemkl_rng_mklcpu.so.0:__svml_cbrt2_ha
libonemkl_rng_mklcpu.so.0:__svml_cbrt2_ha_e7
libonemkl_rng_mklcpu.so.0:__svml_cbrt2_ha_e9
libonemkl_rng_mklcpu.so.0:__svml_cbrt2_ha_ex
libonemkl_rng_mklcpu.so.0:__svml_cbrt2_ha_l9
libonemkl_rng_mklcpu.so.0:__svml_cbrtf4_ha
libonemkl_rng_mklcpu.so.0:__svml_cbrtf4_ha_e7
libonemkl_rng_mklcpu.so.0:__svml_cbrtf4_ha_e9
libonemkl_rng_mklcpu.so.0:__svml_cbrtf4_ha_ex
libonemkl_rng_mklcpu.so.0:__svml_cbrtf4_ha_l9
libonemkl_rng_mklcpu.so.0:__svml_erfc2_ha
libonemkl_rng_mklcpu.so.0:__svml_erfc2_ha_e7
libonemkl_rng_mklcpu.so.0:__svml_erfc2_ha_e9
libonemkl_rng_mklcpu.so.0:__svml_erfc2_ha_ex
libonemkl_rng_mklcpu.so.0:__svml_erfc2_ha_l9
libonemkl_rng_mklcpu.so.0:__svml_feature_flag_init
libonemkl_rng_mklcpu.so.0:__svml_hypot2_ha
libonemkl_rng_mklcpu.so.0:__svml_hypot2_ha_e7
libonemkl_rng_mklcpu.so.0:__svml_hypot2_ha_e9
libonemkl_rng_mklcpu.so.0:__svml_hypot2_ha_ex
libonemkl_rng_mklcpu.so.0:__svml_hypot2_ha_l9
libonemkl_rng_mklcpu.so.0:__svml_hypotf4_ha
libonemkl_rng_mklcpu.so.0:__svml_hypotf4_ha_e7
libonemkl_rng_mklcpu.so.0:__svml_hypotf4_ha_e9
libonemkl_rng_mklcpu.so.0:__svml_hypotf4_ha_ex
libonemkl_rng_mklcpu.so.0:__svml_hypotf4_ha_l9
libonemkl_rng_mklcpu.so.0:_intel_fast_memcpy
libonemkl_rng_mklcpu.so.0:_intel_fast_memset
libonemkl_rng_mklcpu.so.0:drand48
libonemkl_rng_mklcpu.so.0:erand48
libonemkl_rng_mklcpu.so.0:jrand48
libonemkl_rng_mklcpu.so.0:lrand48
libonemkl_rng_mklcpu.so.0:mrand48
libonemkl_rng_mklcpu.so.0:nrand48
libonemkl_rng_mklcpu.so.0:seed48
libonemkl_rng_mklcpu.so.0:srand48
